---
triple:          'arm64-apple-darwin'
binary-path:     scgms_wrapper
relocations:
  - { offsetInCU: 0x68, offset: 0x68, size: 0x8, addend: 0x0, symName: __ZNSt3__1L19piecewise_constructE, symObjAddr: 0x54EE, symBinAddr: 0x100007B9E, symSize: 0x0 }
  - { offsetInCU: 0x4142, offset: 0x4142, size: 0x8, addend: 0x0, symName: __ZNSt3__124__put_character_sequenceB7v160006IcNS_11char_traitsIcEEEERNS_13basic_ostreamIT_T0_EES7_PKS4_m, symObjAddr: 0x10D8, symBinAddr: 0x1000034F4, symSize: 0x1EC }
  - { offsetInCU: 0x4FC6, offset: 0x4FC6, size: 0x8, addend: 0x0, symName: __ZNSt3__124__put_character_sequenceB7v160006IwNS_11char_traitsIwEEEERNS_13basic_ostreamIT_T0_EES7_PKS4_m, symObjAddr: 0x1C9C, symBinAddr: 0x1000040B8, symSize: 0x1DC }
  - { offsetInCU: 0x8C10, offset: 0x8C10, size: 0x8, addend: 0x0, symName: '__ZNSt3__110__function10__not_nullB7v160006IZ20execute_filter_chainvE3$_0EEbRKT_', symObjAddr: 0x34A0, symBinAddr: 0x1000058BC, symSize: 0x18 }
  - { offsetInCU: 0xAB03, offset: 0xAB03, size: 0x8, addend: 0x0, symName: __ZNSt3__1lsB7v160006INS_11char_traitsIcEEEERNS_13basic_ostreamIcT_EES6_PKc, symObjAddr: 0x12C, symBinAddr: 0x100002548, symSize: 0x48 }
  - { offsetInCU: 0xAB49, offset: 0xAB49, size: 0x8, addend: 0x0, symName: __ZNSt3__14endlB7v160006IcNS_11char_traitsIcEEEERNS_13basic_ostreamIT_T0_EES7_, symObjAddr: 0x1A0, symBinAddr: 0x1000025BC, symSize: 0x58 }
  - { offsetInCU: 0xAB8A, offset: 0xAB8A, size: 0x8, addend: 0x0, symName: __ZNSt3__1neB7v160006IPN5scgms18TFilter_DescriptorEEEbRKNS_11__wrap_iterIT_EES8_, symObjAddr: 0x258, symBinAddr: 0x100002674, symSize: 0x34 }
  - { offsetInCU: 0xABCC, offset: 0xABCC, size: 0x8, addend: 0x0, symName: __ZNSt3__1lsB7v160006IwNS_11char_traitsIwEEEERNS_13basic_ostreamIT_T0_EES7_PKS4_, symObjAddr: 0x2A4, symBinAddr: 0x1000026C0, symSize: 0x48 }
  - { offsetInCU: 0xAC1B, offset: 0xAC1B, size: 0x8, addend: 0x0, symName: __ZNSt3__14endlB7v160006IwNS_11char_traitsIwEEEERNS_13basic_ostreamIT_T0_EES7_, symObjAddr: 0x318, symBinAddr: 0x100002734, symSize: 0x54 }
  - { offsetInCU: 0xAC5B, offset: 0xAC5B, size: 0x8, addend: 0x0, symName: __ZNSt3__111make_sharedB7v160006IN6refcnt10Swstr_listEJEvEENS_10shared_ptrIT_EEDpOT0_, symObjAddr: 0x8D4, symBinAddr: 0x100002CF0, symSize: 0x38 }
  - { offsetInCU: 0xAEA6, offset: 0xAEA6, size: 0x8, addend: 0x0, symName: __ZNSt3__1eqB7v160006IPN5scgms18TFilter_DescriptorEEEbRKNS_11__wrap_iterIT_EES8_, symObjAddr: 0xA3C, symBinAddr: 0x100002E58, symSize: 0x48 }
  - { offsetInCU: 0xAEE9, offset: 0xAEE9, size: 0x8, addend: 0x0, symName: __ZNSt3__118__debug_db_erase_cB7v160006INS_6vectorIN5scgms18TFilter_DescriptorENS_9allocatorIS3_EEEEEEvPT_, symObjAddr: 0xCB0, symBinAddr: 0x1000030CC, symSize: 0x10 }
  - { offsetInCU: 0xAF1B, offset: 0xAF1B, size: 0x8, addend: 0x0, symName: __ZNSt3__112__to_addressB7v160006IN5scgms18TFilter_DescriptorEEEPT_S4_, symObjAddr: 0xDF4, symBinAddr: 0x100003210, symSize: 0x14 }
  - { offsetInCU: 0xAF51, offset: 0xAF51, size: 0x8, addend: 0x0, symName: __ZNSt3__119__libcpp_deallocateB7v160006EPvmm, symObjAddr: 0xF18, symBinAddr: 0x100003334, symSize: 0x60 }
  - { offsetInCU: 0xAFB8, offset: 0xAFB8, size: 0x8, addend: 0x0, symName: __ZNSt3__124__is_overaligned_for_newB7v160006Em, symObjAddr: 0xF78, symBinAddr: 0x100003394, symSize: 0x20 }
  - { offsetInCU: 0xAFE7, offset: 0xAFE7, size: 0x8, addend: 0x0, symName: __ZNSt3__127__do_deallocate_handle_sizeB7v160006IJSt11align_val_tEEEvPvmDpT_, symObjAddr: 0xF98, symBinAddr: 0x1000033B4, symSize: 0x30 }
  - { offsetInCU: 0xB03B, offset: 0xB03B, size: 0x8, addend: 0x0, symName: __ZNSt3__127__do_deallocate_handle_sizeB7v160006IJEEEvPvmDpT_, symObjAddr: 0xFC8, symBinAddr: 0x1000033E4, symSize: 0x28 }
  - { offsetInCU: 0xB07A, offset: 0xB07A, size: 0x8, addend: 0x0, symName: __ZNSt3__124__libcpp_operator_deleteB7v160006IJPvSt11align_val_tEEEvDpT_, symObjAddr: 0xFF0, symBinAddr: 0x10000340C, symSize: 0x2C }
  - { offsetInCU: 0xB0C4, offset: 0xB0C4, size: 0x8, addend: 0x0, symName: __ZNSt3__124__libcpp_operator_deleteB7v160006IJPvEEEvDpT_, symObjAddr: 0x101C, symBinAddr: 0x100003438, symSize: 0x24 }
  - { offsetInCU: 0xB0F9, offset: 0xB0F9, size: 0x8, addend: 0x0, symName: __ZNSt3__116__pad_and_outputB7v160006IcNS_11char_traitsIcEEEENS_19ostreambuf_iteratorIT_T0_EES6_PKS4_S8_S8_RNS_8ios_baseES4_, symObjAddr: 0x1314, symBinAddr: 0x100003730, symSize: 0x240 }
  - { offsetInCU: 0xB1C9, offset: 0xB1C9, size: 0x8, addend: 0x0, symName: __ZNSt3__119__debug_db_insert_cB7v160006INS_12basic_stringIcNS_11char_traitsIcEENS_9allocatorIcEEEEEEvPT_, symObjAddr: 0x17C8, symBinAddr: 0x100003BE4, symSize: 0x10 }
  - { offsetInCU: 0xB1FB, offset: 0xB1FB, size: 0x8, addend: 0x0, symName: __ZNSt3__112__to_addressB7v160006IcEEPT_S2_, symObjAddr: 0x1894, symBinAddr: 0x100003CB0, symSize: 0x14 }
  - { offsetInCU: 0xB263, offset: 0xB263, size: 0x8, addend: 0x0, symName: __ZNSt3__19use_facetB7v160006INS_5ctypeIcEEEERKT_RKNS_6localeE, symObjAddr: 0x1B4C, symBinAddr: 0x100003F68, symSize: 0x2C }
  - { offsetInCU: 0xB733, offset: 0xB733, size: 0x8, addend: 0x0, symName: __ZNSt3__118__constexpr_strlenB7v160006EPKc, symObjAddr: 0x1BE4, symBinAddr: 0x100004000, symSize: 0x24 }
  - { offsetInCU: 0xB75E, offset: 0xB75E, size: 0x8, addend: 0x0, symName: __ZNSt3__116__pad_and_outputB7v160006IwNS_11char_traitsIwEEEENS_19ostreambuf_iteratorIT_T0_EES6_PKS4_S8_S8_RNS_8ios_baseES4_, symObjAddr: 0x1EC8, symBinAddr: 0x1000042E4, symSize: 0x258 }
  - { offsetInCU: 0xB82E, offset: 0xB82E, size: 0x8, addend: 0x0, symName: __ZNSt3__119__debug_db_insert_cB7v160006INS_12basic_stringIwNS_11char_traitsIwEENS_9allocatorIwEEEEEEvPT_, symObjAddr: 0x2330, symBinAddr: 0x10000474C, symSize: 0x10 }
  - { offsetInCU: 0xB860, offset: 0xB860, size: 0x8, addend: 0x0, symName: __ZNSt3__112__to_addressB7v160006IwEEPT_S2_, symObjAddr: 0x23FC, symBinAddr: 0x100004818, symSize: 0x14 }
  - { offsetInCU: 0xB8C8, offset: 0xB8C8, size: 0x8, addend: 0x0, symName: __ZNSt3__19use_facetB7v160006INS_5ctypeIwEEEERKT_RKNS_6localeE, symObjAddr: 0x2698, symBinAddr: 0x100004AB4, symSize: 0x2C }
  - { offsetInCU: 0xBD01, offset: 0xBD01, size: 0x8, addend: 0x0, symName: __ZNSt3__118__constexpr_wcslenB7v160006EPKw, symObjAddr: 0x26F8, symBinAddr: 0x100004B14, symSize: 0x24 }
  - { offsetInCU: 0xBD2C, offset: 0xBD2C, size: 0x8, addend: 0x0, symName: __ZNSt3__115allocate_sharedB7v160006IN6refcnt10Swstr_listENS_9allocatorIS2_EEJEvEENS_10shared_ptrIT_EERKT0_DpOT1_, symObjAddr: 0x277C, symBinAddr: 0x100004B98, symSize: 0x90 }
  - { offsetInCU: 0xC025, offset: 0xC025, size: 0x8, addend: 0x0, symName: __ZNSt3__117__libcpp_allocateB7v160006Emm, symObjAddr: 0x2B74, symBinAddr: 0x100004F90, symSize: 0x60 }
  - { offsetInCU: 0xC080, offset: 0xC080, size: 0x8, addend: 0x0, symName: __ZNSt3__121__libcpp_operator_newB7v160006IJmSt11align_val_tEEEPvDpT_, symObjAddr: 0x2BF4, symBinAddr: 0x100005010, symSize: 0x2C }
  - { offsetInCU: 0xC0CD, offset: 0xC0CD, size: 0x8, addend: 0x0, symName: __ZNSt3__121__libcpp_operator_newB7v160006IJmEEEPvDpT_, symObjAddr: 0x2C20, symBinAddr: 0x10000503C, symSize: 0x24 }
  - { offsetInCU: 0xC13A, offset: 0xC13A, size: 0x8, addend: 0x0, symName: __ZNSt3__134__libcpp_atomic_refcount_decrementB7v160006IlEET_RS1_, symObjAddr: 0x32B4, symBinAddr: 0x1000056D0, symSize: 0x30 }
  - { offsetInCU: 0xC2D3, offset: 0xC2D3, size: 0x8, addend: 0x0, symName: '__ZNSt3__116forward_as_tupleB7v160006IJZ20execute_filter_chainvE3$_0EEENS_5tupleIJDpOT_EEES5_', symObjAddr: 0x3A20, symBinAddr: 0x100005E3C, symSize: 0x2C }
  - { offsetInCU: 0xC30D, offset: 0xC30D, size: 0x8, addend: 0x0, symName: '__ZNSt3__116forward_as_tupleB7v160006IJNS_9allocatorIZ20execute_filter_chainvE3$_0EEEEENS_5tupleIJDpOT_EEES7_', symObjAddr: 0x3A4C, symBinAddr: 0x100005E68, symSize: 0x2C }
  - { offsetInCU: 0xC38C, offset: 0xC38C, size: 0x8, addend: 0x0, symName: '__ZNSt3__13getB7v160006ILm0EJOZ20execute_filter_chainvE3$_0EEERNS_13tuple_elementIXT_ENS_5tupleIJDpT0_EEEE4typeERS7_', symObjAddr: 0x3D58, symBinAddr: 0x100006174, symSize: 0x24 }
  - { offsetInCU: 0xC3CF, offset: 0xC3CF, size: 0x8, addend: 0x0, symName: '__ZNSt3__13getB7v160006ILm0EJONS_9allocatorIZ20execute_filter_chainvE3$_0EEEEERNS_13tuple_elementIXT_ENS_5tupleIJDpT0_EEEE4typeERS9_', symObjAddr: 0x3D94, symBinAddr: 0x1000061B0, symSize: 0x24 }
  - { offsetInCU: 0xC8F7, offset: 0xC8F7, size: 0x8, addend: 0x0, symName: '__ZNSt3__116forward_as_tupleB7v160006IJRKZ20execute_filter_chainvE3$_0EEENS_5tupleIJDpOT_EEES7_', symObjAddr: 0x4328, symBinAddr: 0x100006744, symSize: 0x2C }
  - { offsetInCU: 0xC946, offset: 0xC946, size: 0x8, addend: 0x0, symName: '__ZNSt3__13getB7v160006ILm0EJRKZ20execute_filter_chainvE3$_0EEERNS_13tuple_elementIXT_ENS_5tupleIJDpT0_EEEE4typeERS8_', symObjAddr: 0x450C, symBinAddr: 0x100006928, symSize: 0x24 }
  - { offsetInCU: 0xC989, offset: 0xC989, size: 0x8, addend: 0x0, symName: '__ZNSt3__116forward_as_tupleB7v160006IJRKNS_9allocatorIZ20execute_filter_chainvE3$_0EEEEENS_5tupleIJDpOT_EEES9_', symObjAddr: 0x4868, symBinAddr: 0x100006C84, symSize: 0x2C }
  - { offsetInCU: 0xC9D8, offset: 0xC9D8, size: 0x8, addend: 0x0, symName: '__ZNSt3__13getB7v160006ILm0EJRKNS_9allocatorIZ20execute_filter_chainvE3$_0EEEEERNS_13tuple_elementIXT_ENS_5tupleIJDpT0_EEEE4typeERSA_', symObjAddr: 0x4A4C, symBinAddr: 0x100006E68, symSize: 0x24 }
  - { offsetInCU: 0xCA58, offset: 0xCA58, size: 0x8, addend: 0x0, symName: '__ZNSt3__18__invokeB7v160006IRZ20execute_filter_chainvE3$_0JRKNS_12basic_stringIwNS_11char_traitsIwEENS_9allocatorIwEEEEEEEDTclclsr3stdE7declvalIT_EEspclsr3stdE7declvalIT0_EEEEOSB_DpOSC_', symObjAddr: 0x4B18, symBinAddr: 0x100006F34, symSize: 0x2C }
  - { offsetInCU: 0xCAA5, offset: 0xCAA5, size: 0x8, addend: 0x0, symName: __ZNSt3__1lsB7v160006IwNS_11char_traitsIwEENS_9allocatorIwEEEERNS_13basic_ostreamIT_T0_EES9_RKNS_12basic_stringIS6_S7_T1_EE, symObjAddr: 0x4B8C, symBinAddr: 0x100006FA8, symSize: 0x4C }
  - { offsetInCU: 0xCAFE, offset: 0xCAFE, size: 0x8, addend: 0x0, symName: __ZNSt3__112__to_addressB7v160006IKwEEPT_S3_, symObjAddr: 0x4C54, symBinAddr: 0x100007070, symSize: 0x14 }
  - { offsetInCU: 0xCECC, offset: 0xCECC, size: 0x8, addend: 0x0, symName: __ZSt28__throw_bad_array_new_lengthB7v160006v, symObjAddr: 0x2B40, symBinAddr: 0x100004F5C, symSize: 0x34 }
  - { offsetInCU: 0xD6CB, offset: 0xD6CB, size: 0x8, addend: 0x0, symName: __ZN5scgms7factory14resolve_symbolIPFlPPNS_38IPersistent_Filter_Chain_ConfigurationEEEET_PKc, symObjAddr: 0x834, symBinAddr: 0x100002C50, symSize: 0x50 }
  - { offsetInCU: 0xD70F, offset: 0xD70F, size: 0x8, addend: 0x0, symName: __ZN5scgms7factory14resolve_symbolIPFlPNS_27IFilter_Chain_ConfigurationEPFlPNS_7IFilterEPKvES7_S5_PPNS_16IFilter_ExecutorEPN6refcnt17IVector_ContainerIPNSE_IwEEEEEEET_PKc, symObjAddr: 0x884, symBinAddr: 0x100002CA0, symSize: 0x50 }
  - { offsetInCU: 0xE8DF, offset: 0xE8DF, size: 0x8, addend: 0x0, symName: __Z20execute_filter_chainv, symObjAddr: 0x55C, symBinAddr: 0x100002978, symSize: 0x2D8 }
  - { offsetInCU: 0x10ED6, offset: 0x10ED6, size: 0x8, addend: 0x0, symName: __Z20listAvailableFiltersv, symObjAddr: 0x0, symBinAddr: 0x10000241C, symSize: 0x12C }
  - { offsetInCU: 0x10F54, offset: 0x10F54, size: 0x8, addend: 0x0, symName: __ZNSt3__113basic_ostreamIcNS_11char_traitsIcEEElsB7v160006EPFRS3_S4_E, symObjAddr: 0x174, symBinAddr: 0x100002590, symSize: 0x2C }
  - { offsetInCU: 0x10F88, offset: 0x10F88, size: 0x8, addend: 0x0, symName: __ZNSt3__16vectorIN5scgms18TFilter_DescriptorENS_9allocatorIS2_EEE5beginB7v160006Ev, symObjAddr: 0x1F8, symBinAddr: 0x100002614, symSize: 0x30 }
  - { offsetInCU: 0x10FB0, offset: 0x10FB0, size: 0x8, addend: 0x0, symName: __ZNSt3__16vectorIN5scgms18TFilter_DescriptorENS_9allocatorIS2_EEE3endB7v160006Ev, symObjAddr: 0x228, symBinAddr: 0x100002644, symSize: 0x30 }
  - { offsetInCU: 0x10FD8, offset: 0x10FD8, size: 0x8, addend: 0x0, symName: __ZNKSt3__111__wrap_iterIPN5scgms18TFilter_DescriptorEEdeB7v160006Ev, symObjAddr: 0x28C, symBinAddr: 0x1000026A8, symSize: 0x18 }
  - { offsetInCU: 0x10FFE, offset: 0x10FFE, size: 0x8, addend: 0x0, symName: __ZNSt3__113basic_ostreamIwNS_11char_traitsIwEEElsB7v160006EPFRS3_S4_E, symObjAddr: 0x2EC, symBinAddr: 0x100002708, symSize: 0x2C }
  - { offsetInCU: 0x11032, offset: 0x11032, size: 0x8, addend: 0x0, symName: __ZNSt3__111__wrap_iterIPN5scgms18TFilter_DescriptorEEppB7v160006Ev, symObjAddr: 0x36C, symBinAddr: 0x100002788, symSize: 0x20 }
  - { offsetInCU: 0x11058, offset: 0x11058, size: 0x8, addend: 0x0, symName: __ZNSt3__16vectorIN5scgms18TFilter_DescriptorENS_9allocatorIS2_EEED1B7v160006Ev, symObjAddr: 0x38C, symBinAddr: 0x1000027A8, symSize: 0x2C }
  - { offsetInCU: 0x11082, offset: 0x11082, size: 0x8, addend: 0x0, symName: __Z14load_scgms_libv, symObjAddr: 0x3B8, symBinAddr: 0x1000027D4, symSize: 0x134 }
  - { offsetInCU: 0x110BB, offset: 0x110BB, size: 0x8, addend: 0x0, symName: __ZNSt3__112basic_stringIwNS_11char_traitsIwEENS_9allocatorIwEEEC1B7v160006IDnEEPKw, symObjAddr: 0x4EC, symBinAddr: 0x100002908, symSize: 0x34 }
  - { offsetInCU: 0x110F9, offset: 0x110F9, size: 0x8, addend: 0x0, symName: __Z26on_filter_created_callbackPv, symObjAddr: 0x520, symBinAddr: 0x10000293C, symSize: 0x3C }
  - { offsetInCU: 0x1114B, offset: 0x1114B, size: 0x8, addend: 0x0, symName: __ZNKSt3__110shared_ptrIN6refcnt10Swstr_listEE3getB7v160006Ev, symObjAddr: 0x90C, symBinAddr: 0x100002D28, symSize: 0x18 }
  - { offsetInCU: 0x11171, offset: 0x11171, size: 0x8, addend: 0x0, symName: __ZNKSt3__110shared_ptrIN6refcnt10Swstr_listEEptB7v160006Ev, symObjAddr: 0x924, symBinAddr: 0x100002D40, symSize: 0x18 }
  - { offsetInCU: 0x11197, offset: 0x11197, size: 0x8, addend: 0x0, symName: '__ZNSt3__18functionIFvRKNS_12basic_stringIwNS_11char_traitsIwEENS_9allocatorIwEEEEEEC1IZ20execute_filter_chainvE3$_0vEET_', symObjAddr: 0x93C, symBinAddr: 0x100002D58, symSize: 0x2C }
  - { offsetInCU: 0x111DC, offset: 0x111DC, size: 0x8, addend: 0x0, symName: __ZNSt3__18functionIFvRKNS_12basic_stringIwNS_11char_traitsIwEENS_9allocatorIwEEEEEED1Ev, symObjAddr: 0x968, symBinAddr: 0x100002D84, symSize: 0x2C }
  - { offsetInCU: 0x11208, offset: 0x11208, size: 0x8, addend: 0x0, symName: __ZNSt3__110shared_ptrIN6refcnt10Swstr_listEED1B7v160006Ev, symObjAddr: 0x994, symBinAddr: 0x100002DB0, symSize: 0x2C }
  - { offsetInCU: 0x11232, offset: 0x11232, size: 0x8, addend: 0x0, symName: _main, symObjAddr: 0x9C0, symBinAddr: 0x100002DDC, symSize: 0x7C }
  - { offsetInCU: 0x1124C, offset: 0x1124C, size: 0x8, addend: 0x0, symName: __ZNKSt3__111__wrap_iterIPN5scgms18TFilter_DescriptorEE4baseB7v160006Ev, symObjAddr: 0xA84, symBinAddr: 0x100002EA0, symSize: 0x18 }
  - { offsetInCU: 0x11272, offset: 0x11272, size: 0x8, addend: 0x0, symName: __ZNSt3__16vectorIN5scgms18TFilter_DescriptorENS_9allocatorIS2_EEED2B7v160006Ev, symObjAddr: 0xA9C, symBinAddr: 0x100002EB8, symSize: 0x44 }
  - { offsetInCU: 0x1129C, offset: 0x1129C, size: 0x8, addend: 0x0, symName: __ZNSt3__16vectorIN5scgms18TFilter_DescriptorENS_9allocatorIS2_EEE16__destroy_vectorC1ERS5_, symObjAddr: 0xAE0, symBinAddr: 0x100002EFC, symSize: 0x34 }
  - { offsetInCU: 0x112D5, offset: 0x112D5, size: 0x8, addend: 0x0, symName: __ZNSt3__16vectorIN5scgms18TFilter_DescriptorENS_9allocatorIS2_EEE16__destroy_vectorclB7v160006Ev, symObjAddr: 0xB20, symBinAddr: 0x100002F3C, symSize: 0x9C }
  - { offsetInCU: 0x112FB, offset: 0x112FB, size: 0x8, addend: 0x0, symName: __ZNSt3__16vectorIN5scgms18TFilter_DescriptorENS_9allocatorIS2_EEE16__destroy_vectorC2ERS5_, symObjAddr: 0xBBC, symBinAddr: 0x100002FD8, symSize: 0x20 }
  - { offsetInCU: 0x11334, offset: 0x11334, size: 0x8, addend: 0x0, symName: __ZNKSt3__16vectorIN5scgms18TFilter_DescriptorENS_9allocatorIS2_EEE17__annotate_deleteB7v160006Ev, symObjAddr: 0xBDC, symBinAddr: 0x100002FF8, symSize: 0xD4 }
  - { offsetInCU: 0x1135A, offset: 0x1135A, size: 0x8, addend: 0x0, symName: __ZNSt3__16vectorIN5scgms18TFilter_DescriptorENS_9allocatorIS2_EEE7__clearB7v160006Ev, symObjAddr: 0xCC0, symBinAddr: 0x1000030DC, symSize: 0x28 }
  - { offsetInCU: 0x11380, offset: 0x11380, size: 0x8, addend: 0x0, symName: __ZNSt3__116allocator_traitsINS_9allocatorIN5scgms18TFilter_DescriptorEEEE10deallocateB7v160006ERS4_PS3_m, symObjAddr: 0xCE8, symBinAddr: 0x100003104, symSize: 0x34 }
  - { offsetInCU: 0x113C2, offset: 0x113C2, size: 0x8, addend: 0x0, symName: __ZNSt3__16vectorIN5scgms18TFilter_DescriptorENS_9allocatorIS2_EEE7__allocB7v160006Ev, symObjAddr: 0xD1C, symBinAddr: 0x100003138, symSize: 0x28 }
  - { offsetInCU: 0x113E8, offset: 0x113E8, size: 0x8, addend: 0x0, symName: __ZNKSt3__16vectorIN5scgms18TFilter_DescriptorENS_9allocatorIS2_EEE8capacityB7v160006Ev, symObjAddr: 0xD44, symBinAddr: 0x100003160, symSize: 0x40 }
  - { offsetInCU: 0x1140E, offset: 0x1140E, size: 0x8, addend: 0x0, symName: __ZNKSt3__16vectorIN5scgms18TFilter_DescriptorENS_9allocatorIS2_EEE31__annotate_contiguous_containerB7v160006EPKvS7_S7_S7_, symObjAddr: 0xD84, symBinAddr: 0x1000031A0, symSize: 0x20 }
  - { offsetInCU: 0x11464, offset: 0x11464, size: 0x8, addend: 0x0, symName: __ZNKSt3__16vectorIN5scgms18TFilter_DescriptorENS_9allocatorIS2_EEE4dataB7v160006Ev, symObjAddr: 0xDA4, symBinAddr: 0x1000031C0, symSize: 0x28 }
  - { offsetInCU: 0x1148A, offset: 0x1148A, size: 0x8, addend: 0x0, symName: __ZNKSt3__16vectorIN5scgms18TFilter_DescriptorENS_9allocatorIS2_EEE4sizeB7v160006Ev, symObjAddr: 0xDCC, symBinAddr: 0x1000031E8, symSize: 0x28 }
  - { offsetInCU: 0x114B0, offset: 0x114B0, size: 0x8, addend: 0x0, symName: __ZNSt3__16vectorIN5scgms18TFilter_DescriptorENS_9allocatorIS2_EEE22__base_destruct_at_endB7v160006EPS2_, symObjAddr: 0xE08, symBinAddr: 0x100003224, symSize: 0x8C }
  - { offsetInCU: 0x114F4, offset: 0x114F4, size: 0x8, addend: 0x0, symName: __ZNSt3__116allocator_traitsINS_9allocatorIN5scgms18TFilter_DescriptorEEEE7destroyB7v160006IS3_vEEvRS4_PT_, symObjAddr: 0xE94, symBinAddr: 0x1000032B0, symSize: 0x2C }
  - { offsetInCU: 0x11531, offset: 0x11531, size: 0x8, addend: 0x0, symName: __ZNSt3__19allocatorIN5scgms18TFilter_DescriptorEE7destroyB7v160006EPS2_, symObjAddr: 0xEC0, symBinAddr: 0x1000032DC, symSize: 0x14 }
  - { offsetInCU: 0x11565, offset: 0x11565, size: 0x8, addend: 0x0, symName: __ZNSt3__19allocatorIN5scgms18TFilter_DescriptorEE10deallocateB7v160006EPS2_m, symObjAddr: 0xED4, symBinAddr: 0x1000032F0, symSize: 0x44 }
  - { offsetInCU: 0x115A7, offset: 0x115A7, size: 0x8, addend: 0x0, symName: __ZNSt3__117__compressed_pairIPN5scgms18TFilter_DescriptorENS_9allocatorIS2_EEE6secondB7v160006Ev, symObjAddr: 0x1040, symBinAddr: 0x10000345C, symSize: 0x24 }
  - { offsetInCU: 0x115CD, offset: 0x115CD, size: 0x8, addend: 0x0, symName: __ZNSt3__122__compressed_pair_elemINS_9allocatorIN5scgms18TFilter_DescriptorEEELi1ELb1EE5__getB7v160006Ev, symObjAddr: 0x1064, symBinAddr: 0x100003480, symSize: 0x14 }
  - { offsetInCU: 0x115F3, offset: 0x115F3, size: 0x8, addend: 0x0, symName: __ZNKSt3__16vectorIN5scgms18TFilter_DescriptorENS_9allocatorIS2_EEE9__end_capB7v160006Ev, symObjAddr: 0x1078, symBinAddr: 0x100003494, symSize: 0x28 }
  - { offsetInCU: 0x11619, offset: 0x11619, size: 0x8, addend: 0x0, symName: __ZNKSt3__117__compressed_pairIPN5scgms18TFilter_DescriptorENS_9allocatorIS2_EEE5firstB7v160006Ev, symObjAddr: 0x10A0, symBinAddr: 0x1000034BC, symSize: 0x24 }
  - { offsetInCU: 0x1163F, offset: 0x1163F, size: 0x8, addend: 0x0, symName: __ZNKSt3__122__compressed_pair_elemIPN5scgms18TFilter_DescriptorELi0ELb0EE5__getB7v160006Ev, symObjAddr: 0x10C4, symBinAddr: 0x1000034E0, symSize: 0x14 }
  - { offsetInCU: 0x11665, offset: 0x11665, size: 0x8, addend: 0x0, symName: __ZNSt3__111char_traitsIcE6lengthEPKc, symObjAddr: 0x12C4, symBinAddr: 0x1000036E0, symSize: 0x34 }
  - { offsetInCU: 0x116AB, offset: 0x116AB, size: 0x8, addend: 0x0, symName: __ZNKSt3__113basic_ostreamIcNS_11char_traitsIcEEE6sentrycvbB7v160006Ev, symObjAddr: 0x12F8, symBinAddr: 0x100003714, symSize: 0x1C }
  - { offsetInCU: 0x116D1, offset: 0x116D1, size: 0x8, addend: 0x0, symName: __ZNSt3__119ostreambuf_iteratorIcNS_11char_traitsIcEEEC1B7v160006ERNS_13basic_ostreamIcS2_EE, symObjAddr: 0x1554, symBinAddr: 0x100003970, symSize: 0x34 }
  - { offsetInCU: 0x11709, offset: 0x11709, size: 0x8, addend: 0x0, symName: __ZNKSt3__18ios_base5flagsB7v160006Ev, symObjAddr: 0x1588, symBinAddr: 0x1000039A4, symSize: 0x18 }
  - { offsetInCU: 0x11731, offset: 0x11731, size: 0x8, addend: 0x0, symName: __ZNKSt3__19basic_iosIcNS_11char_traitsIcEEE4fillB7v160006Ev, symObjAddr: 0x15A0, symBinAddr: 0x1000039BC, symSize: 0x64 }
  - { offsetInCU: 0x11759, offset: 0x11759, size: 0x8, addend: 0x0, symName: __ZNKSt3__119ostreambuf_iteratorIcNS_11char_traitsIcEEE6failedB7v160006Ev, symObjAddr: 0x1604, symBinAddr: 0x100003A20, symSize: 0x24 }
  - { offsetInCU: 0x1177F, offset: 0x1177F, size: 0x8, addend: 0x0, symName: __ZNSt3__19basic_iosIcNS_11char_traitsIcEEE8setstateB7v160006Ej, symObjAddr: 0x1628, symBinAddr: 0x100003A44, symSize: 0x2C }
  - { offsetInCU: 0x117B4, offset: 0x117B4, size: 0x8, addend: 0x0, symName: __ZNKSt3__18ios_base5widthB7v160006Ev, symObjAddr: 0x1654, symBinAddr: 0x100003A70, symSize: 0x18 }
  - { offsetInCU: 0x117DC, offset: 0x117DC, size: 0x8, addend: 0x0, symName: __ZNSt3__115basic_streambufIcNS_11char_traitsIcEEE5sputnB7v160006EPKcl, symObjAddr: 0x166C, symBinAddr: 0x100003A88, symSize: 0x3C }
  - { offsetInCU: 0x1181E, offset: 0x1181E, size: 0x8, addend: 0x0, symName: __ZNSt3__112basic_stringIcNS_11char_traitsIcEENS_9allocatorIcEEEC1B7v160006Emc, symObjAddr: 0x16A8, symBinAddr: 0x100003AC4, symSize: 0x3C }
  - { offsetInCU: 0x11866, offset: 0x11866, size: 0x8, addend: 0x0, symName: __ZNSt3__112basic_stringIcNS_11char_traitsIcEENS_9allocatorIcEEE4dataB7v160006Ev, symObjAddr: 0x16E4, symBinAddr: 0x100003B00, symSize: 0x28 }
  - { offsetInCU: 0x1188C, offset: 0x1188C, size: 0x8, addend: 0x0, symName: __ZNSt3__18ios_base5widthB7v160006El, symObjAddr: 0x170C, symBinAddr: 0x100003B28, symSize: 0x2C }
  - { offsetInCU: 0x118D2, offset: 0x118D2, size: 0x8, addend: 0x0, symName: __ZNSt3__112basic_stringIcNS_11char_traitsIcEENS_9allocatorIcEEEC2B7v160006Emc, symObjAddr: 0x1738, symBinAddr: 0x100003B54, symSize: 0x54 }
  - { offsetInCU: 0x11920, offset: 0x11920, size: 0x8, addend: 0x0, symName: __ZNSt3__117__compressed_pairINS_12basic_stringIcNS_11char_traitsIcEENS_9allocatorIcEEE5__repES5_EC1B7v160006INS_18__default_init_tagESA_EEOT_OT0_, symObjAddr: 0x178C, symBinAddr: 0x100003BA8, symSize: 0x3C }
  - { offsetInCU: 0x11978, offset: 0x11978, size: 0x8, addend: 0x0, symName: __ZNSt3__117__compressed_pairINS_12basic_stringIcNS_11char_traitsIcEENS_9allocatorIcEEE5__repES5_EC2B7v160006INS_18__default_init_tagESA_EEOT_OT0_, symObjAddr: 0x17D8, symBinAddr: 0x100003BF4, symSize: 0x3C }
  - { offsetInCU: 0x119D0, offset: 0x119D0, size: 0x8, addend: 0x0, symName: __ZNSt3__122__compressed_pair_elemINS_12basic_stringIcNS_11char_traitsIcEENS_9allocatorIcEEE5__repELi0ELb0EEC2B7v160006ENS_18__default_init_tagE, symObjAddr: 0x1814, symBinAddr: 0x100003C30, symSize: 0x14 }
  - { offsetInCU: 0x11A04, offset: 0x11A04, size: 0x8, addend: 0x0, symName: __ZNSt3__122__compressed_pair_elemINS_9allocatorIcEELi1ELb1EEC2B7v160006ENS_18__default_init_tagE, symObjAddr: 0x1828, symBinAddr: 0x100003C44, symSize: 0x2C }
  - { offsetInCU: 0x11A38, offset: 0x11A38, size: 0x8, addend: 0x0, symName: __ZNSt3__19allocatorIcEC2B7v160006Ev, symObjAddr: 0x1854, symBinAddr: 0x100003C70, symSize: 0x2C }
  - { offsetInCU: 0x11A62, offset: 0x11A62, size: 0x8, addend: 0x0, symName: __ZNSt3__116__non_trivial_ifILb1ENS_9allocatorIcEEEC2B7v160006Ev, symObjAddr: 0x1880, symBinAddr: 0x100003C9C, symSize: 0x14 }
  - { offsetInCU: 0x11A8C, offset: 0x11A8C, size: 0x8, addend: 0x0, symName: __ZNSt3__112basic_stringIcNS_11char_traitsIcEENS_9allocatorIcEEE13__get_pointerB7v160006Ev, symObjAddr: 0x18A8, symBinAddr: 0x100003CC4, symSize: 0x54 }
  - { offsetInCU: 0x11AB2, offset: 0x11AB2, size: 0x8, addend: 0x0, symName: __ZNKSt3__112basic_stringIcNS_11char_traitsIcEENS_9allocatorIcEEE9__is_longB7v160006Ev, symObjAddr: 0x18FC, symBinAddr: 0x100003D18, symSize: 0x38 }
  - { offsetInCU: 0x11AD8, offset: 0x11AD8, size: 0x8, addend: 0x0, symName: __ZNSt3__112basic_stringIcNS_11char_traitsIcEENS_9allocatorIcEEE18__get_long_pointerB7v160006Ev, symObjAddr: 0x1934, symBinAddr: 0x100003D50, symSize: 0x28 }
  - { offsetInCU: 0x11AFE, offset: 0x11AFE, size: 0x8, addend: 0x0, symName: __ZNSt3__112basic_stringIcNS_11char_traitsIcEENS_9allocatorIcEEE19__get_short_pointerB7v160006Ev, symObjAddr: 0x195C, symBinAddr: 0x100003D78, symSize: 0x28 }
  - { offsetInCU: 0x11B24, offset: 0x11B24, size: 0x8, addend: 0x0, symName: __ZNKSt3__117__compressed_pairINS_12basic_stringIcNS_11char_traitsIcEENS_9allocatorIcEEE5__repES5_E5firstB7v160006Ev, symObjAddr: 0x1984, symBinAddr: 0x100003DA0, symSize: 0x24 }
  - { offsetInCU: 0x11B4A, offset: 0x11B4A, size: 0x8, addend: 0x0, symName: __ZNKSt3__122__compressed_pair_elemINS_12basic_stringIcNS_11char_traitsIcEENS_9allocatorIcEEE5__repELi0ELb0EE5__getB7v160006Ev, symObjAddr: 0x19A8, symBinAddr: 0x100003DC4, symSize: 0x14 }
  - { offsetInCU: 0x11B70, offset: 0x11B70, size: 0x8, addend: 0x0, symName: __ZNSt3__117__compressed_pairINS_12basic_stringIcNS_11char_traitsIcEENS_9allocatorIcEEE5__repES5_E5firstB7v160006Ev, symObjAddr: 0x19BC, symBinAddr: 0x100003DD8, symSize: 0x24 }
  - { offsetInCU: 0x11B96, offset: 0x11B96, size: 0x8, addend: 0x0, symName: __ZNSt3__122__compressed_pair_elemINS_12basic_stringIcNS_11char_traitsIcEENS_9allocatorIcEEE5__repELi0ELb0EE5__getB7v160006Ev, symObjAddr: 0x19E0, symBinAddr: 0x100003DFC, symSize: 0x14 }
  - { offsetInCU: 0x11BBC, offset: 0x11BBC, size: 0x8, addend: 0x0, symName: __ZNSt3__114pointer_traitsIPcE10pointer_toB7v160006ERc, symObjAddr: 0x19F4, symBinAddr: 0x100003E10, symSize: 0x14 }
  - { offsetInCU: 0x11BDF, offset: 0x11BDF, size: 0x8, addend: 0x0, symName: __ZNSt3__119ostreambuf_iteratorIcNS_11char_traitsIcEEEC2B7v160006ERNS_13basic_ostreamIcS2_EE, symObjAddr: 0x1A08, symBinAddr: 0x100003E24, symSize: 0x54 }
  - { offsetInCU: 0x11C17, offset: 0x11C17, size: 0x8, addend: 0x0, symName: __ZNKSt3__19basic_iosIcNS_11char_traitsIcEEE5rdbufB7v160006Ev, symObjAddr: 0x1A5C, symBinAddr: 0x100003E78, symSize: 0x24 }
  - { offsetInCU: 0x11C3F, offset: 0x11C3F, size: 0x8, addend: 0x0, symName: __ZNKSt3__18ios_base5rdbufB7v160006Ev, symObjAddr: 0x1A80, symBinAddr: 0x100003E9C, symSize: 0x18 }
  - { offsetInCU: 0x11C65, offset: 0x11C65, size: 0x8, addend: 0x0, symName: __ZNSt3__111char_traitsIcE11eq_int_typeEii, symObjAddr: 0x1A98, symBinAddr: 0x100003EB4, symSize: 0x28 }
  - { offsetInCU: 0x11C96, offset: 0x11C96, size: 0x8, addend: 0x0, symName: __ZNSt3__111char_traitsIcE3eofEv, symObjAddr: 0x1AC0, symBinAddr: 0x100003EDC, symSize: 0x8 }
  - { offsetInCU: 0x11CAA, offset: 0x11CAA, size: 0x8, addend: 0x0, symName: __ZNKSt3__19basic_iosIcNS_11char_traitsIcEEE5widenB7v160006Ec, symObjAddr: 0x1AC8, symBinAddr: 0x100003EE4, symSize: 0x84 }
  - { offsetInCU: 0x11D1A, offset: 0x11D1A, size: 0x8, addend: 0x0, symName: __ZNKSt3__15ctypeIcE5widenB7v160006Ec, symObjAddr: 0x1B78, symBinAddr: 0x100003F94, symSize: 0x38 }
  - { offsetInCU: 0x11D4F, offset: 0x11D4F, size: 0x8, addend: 0x0, symName: __ZNSt3__18ios_base8setstateB7v160006Ej, symObjAddr: 0x1BB0, symBinAddr: 0x100003FCC, symSize: 0x34 }
  - { offsetInCU: 0x11D86, offset: 0x11D86, size: 0x8, addend: 0x0, symName: __ZNSt3__16vectorIN5scgms18TFilter_DescriptorENS_9allocatorIS2_EEE11__make_iterB7v160006EPS2_, symObjAddr: 0x1C08, symBinAddr: 0x100004024, symSize: 0x34 }
  - { offsetInCU: 0x11DBB, offset: 0x11DBB, size: 0x8, addend: 0x0, symName: __ZNSt3__111__wrap_iterIPN5scgms18TFilter_DescriptorEEC1B7v160006EPKvS3_, symObjAddr: 0x1C3C, symBinAddr: 0x100004058, symSize: 0x3C }
  - { offsetInCU: 0x11E01, offset: 0x11E01, size: 0x8, addend: 0x0, symName: __ZNSt3__111__wrap_iterIPN5scgms18TFilter_DescriptorEEC2B7v160006EPKvS3_, symObjAddr: 0x1C78, symBinAddr: 0x100004094, symSize: 0x24 }
  - { offsetInCU: 0x11E47, offset: 0x11E47, size: 0x8, addend: 0x0, symName: __ZNSt3__111char_traitsIwE6lengthEPKw, symObjAddr: 0x1E78, symBinAddr: 0x100004294, symSize: 0x34 }
  - { offsetInCU: 0x11E8E, offset: 0x11E8E, size: 0x8, addend: 0x0, symName: __ZNKSt3__113basic_ostreamIwNS_11char_traitsIwEEE6sentrycvbB7v160006Ev, symObjAddr: 0x1EAC, symBinAddr: 0x1000042C8, symSize: 0x1C }
  - { offsetInCU: 0x11EB4, offset: 0x11EB4, size: 0x8, addend: 0x0, symName: __ZNSt3__119ostreambuf_iteratorIwNS_11char_traitsIwEEEC1B7v160006ERNS_13basic_ostreamIwS2_EE, symObjAddr: 0x2120, symBinAddr: 0x10000453C, symSize: 0x34 }
  - { offsetInCU: 0x11EEC, offset: 0x11EEC, size: 0x8, addend: 0x0, symName: __ZNKSt3__19basic_iosIwNS_11char_traitsIwEEE4fillB7v160006Ev, symObjAddr: 0x2154, symBinAddr: 0x100004570, symSize: 0x5C }
  - { offsetInCU: 0x11F14, offset: 0x11F14, size: 0x8, addend: 0x0, symName: __ZNKSt3__119ostreambuf_iteratorIwNS_11char_traitsIwEEE6failedB7v160006Ev, symObjAddr: 0x21B0, symBinAddr: 0x1000045CC, symSize: 0x24 }
  - { offsetInCU: 0x11F3A, offset: 0x11F3A, size: 0x8, addend: 0x0, symName: __ZNSt3__19basic_iosIwNS_11char_traitsIwEEE8setstateB7v160006Ej, symObjAddr: 0x21D4, symBinAddr: 0x1000045F0, symSize: 0x2C }
  - { offsetInCU: 0x11F6F, offset: 0x11F6F, size: 0x8, addend: 0x0, symName: __ZNSt3__115basic_streambufIwNS_11char_traitsIwEEE5sputnB7v160006EPKwl, symObjAddr: 0x2200, symBinAddr: 0x10000461C, symSize: 0x3C }
  - { offsetInCU: 0x11FB1, offset: 0x11FB1, size: 0x8, addend: 0x0, symName: __ZNSt3__112basic_stringIwNS_11char_traitsIwEENS_9allocatorIwEEEC1B7v160006Emw, symObjAddr: 0x223C, symBinAddr: 0x100004658, symSize: 0x3C }
  - { offsetInCU: 0x11FF9, offset: 0x11FF9, size: 0x8, addend: 0x0, symName: __ZNSt3__112basic_stringIwNS_11char_traitsIwEENS_9allocatorIwEEE4dataB7v160006Ev, symObjAddr: 0x2278, symBinAddr: 0x100004694, symSize: 0x28 }
  - { offsetInCU: 0x1201F, offset: 0x1201F, size: 0x8, addend: 0x0, symName: __ZNSt3__112basic_stringIwNS_11char_traitsIwEENS_9allocatorIwEEEC2B7v160006Emw, symObjAddr: 0x22A0, symBinAddr: 0x1000046BC, symSize: 0x54 }
  - { offsetInCU: 0x12067, offset: 0x12067, size: 0x8, addend: 0x0, symName: __ZNSt3__117__compressed_pairINS_12basic_stringIwNS_11char_traitsIwEENS_9allocatorIwEEE5__repES5_EC1B7v160006INS_18__default_init_tagESA_EEOT_OT0_, symObjAddr: 0x22F4, symBinAddr: 0x100004710, symSize: 0x3C }
  - { offsetInCU: 0x120BF, offset: 0x120BF, size: 0x8, addend: 0x0, symName: __ZNSt3__117__compressed_pairINS_12basic_stringIwNS_11char_traitsIwEENS_9allocatorIwEEE5__repES5_EC2B7v160006INS_18__default_init_tagESA_EEOT_OT0_, symObjAddr: 0x2340, symBinAddr: 0x10000475C, symSize: 0x3C }
  - { offsetInCU: 0x12117, offset: 0x12117, size: 0x8, addend: 0x0, symName: __ZNSt3__122__compressed_pair_elemINS_12basic_stringIwNS_11char_traitsIwEENS_9allocatorIwEEE5__repELi0ELb0EEC2B7v160006ENS_18__default_init_tagE, symObjAddr: 0x237C, symBinAddr: 0x100004798, symSize: 0x14 }
  - { offsetInCU: 0x1214B, offset: 0x1214B, size: 0x8, addend: 0x0, symName: __ZNSt3__122__compressed_pair_elemINS_9allocatorIwEELi1ELb1EEC2B7v160006ENS_18__default_init_tagE, symObjAddr: 0x2390, symBinAddr: 0x1000047AC, symSize: 0x2C }
  - { offsetInCU: 0x1217F, offset: 0x1217F, size: 0x8, addend: 0x0, symName: __ZNSt3__19allocatorIwEC2B7v160006Ev, symObjAddr: 0x23BC, symBinAddr: 0x1000047D8, symSize: 0x2C }
  - { offsetInCU: 0x121A9, offset: 0x121A9, size: 0x8, addend: 0x0, symName: __ZNSt3__116__non_trivial_ifILb1ENS_9allocatorIwEEEC2B7v160006Ev, symObjAddr: 0x23E8, symBinAddr: 0x100004804, symSize: 0x14 }
  - { offsetInCU: 0x121D3, offset: 0x121D3, size: 0x8, addend: 0x0, symName: __ZNSt3__112basic_stringIwNS_11char_traitsIwEENS_9allocatorIwEEE13__get_pointerB7v160006Ev, symObjAddr: 0x2410, symBinAddr: 0x10000482C, symSize: 0x54 }
  - { offsetInCU: 0x121F9, offset: 0x121F9, size: 0x8, addend: 0x0, symName: __ZNKSt3__112basic_stringIwNS_11char_traitsIwEENS_9allocatorIwEEE9__is_longB7v160006Ev, symObjAddr: 0x2464, symBinAddr: 0x100004880, symSize: 0x38 }
  - { offsetInCU: 0x1221F, offset: 0x1221F, size: 0x8, addend: 0x0, symName: __ZNSt3__112basic_stringIwNS_11char_traitsIwEENS_9allocatorIwEEE18__get_long_pointerB7v160006Ev, symObjAddr: 0x249C, symBinAddr: 0x1000048B8, symSize: 0x28 }
  - { offsetInCU: 0x12245, offset: 0x12245, size: 0x8, addend: 0x0, symName: __ZNSt3__112basic_stringIwNS_11char_traitsIwEENS_9allocatorIwEEE19__get_short_pointerB7v160006Ev, symObjAddr: 0x24C4, symBinAddr: 0x1000048E0, symSize: 0x28 }
  - { offsetInCU: 0x1226B, offset: 0x1226B, size: 0x8, addend: 0x0, symName: __ZNKSt3__117__compressed_pairINS_12basic_stringIwNS_11char_traitsIwEENS_9allocatorIwEEE5__repES5_E5firstB7v160006Ev, symObjAddr: 0x24EC, symBinAddr: 0x100004908, symSize: 0x24 }
  - { offsetInCU: 0x12291, offset: 0x12291, size: 0x8, addend: 0x0, symName: __ZNKSt3__122__compressed_pair_elemINS_12basic_stringIwNS_11char_traitsIwEENS_9allocatorIwEEE5__repELi0ELb0EE5__getB7v160006Ev, symObjAddr: 0x2510, symBinAddr: 0x10000492C, symSize: 0x14 }
  - { offsetInCU: 0x122B7, offset: 0x122B7, size: 0x8, addend: 0x0, symName: __ZNSt3__117__compressed_pairINS_12basic_stringIwNS_11char_traitsIwEENS_9allocatorIwEEE5__repES5_E5firstB7v160006Ev, symObjAddr: 0x2524, symBinAddr: 0x100004940, symSize: 0x24 }
  - { offsetInCU: 0x122DD, offset: 0x122DD, size: 0x8, addend: 0x0, symName: __ZNSt3__122__compressed_pair_elemINS_12basic_stringIwNS_11char_traitsIwEENS_9allocatorIwEEE5__repELi0ELb0EE5__getB7v160006Ev, symObjAddr: 0x2548, symBinAddr: 0x100004964, symSize: 0x14 }
  - { offsetInCU: 0x12303, offset: 0x12303, size: 0x8, addend: 0x0, symName: __ZNSt3__114pointer_traitsIPwE10pointer_toB7v160006ERw, symObjAddr: 0x255C, symBinAddr: 0x100004978, symSize: 0x14 }
  - { offsetInCU: 0x12326, offset: 0x12326, size: 0x8, addend: 0x0, symName: __ZNSt3__119ostreambuf_iteratorIwNS_11char_traitsIwEEEC2B7v160006ERNS_13basic_ostreamIwS2_EE, symObjAddr: 0x2570, symBinAddr: 0x10000498C, symSize: 0x54 }
  - { offsetInCU: 0x1235E, offset: 0x1235E, size: 0x8, addend: 0x0, symName: __ZNKSt3__19basic_iosIwNS_11char_traitsIwEEE5rdbufB7v160006Ev, symObjAddr: 0x25C4, symBinAddr: 0x1000049E0, symSize: 0x24 }
  - { offsetInCU: 0x12386, offset: 0x12386, size: 0x8, addend: 0x0, symName: __ZNSt3__111char_traitsIwE11eq_int_typeEii, symObjAddr: 0x25E8, symBinAddr: 0x100004A04, symSize: 0x28 }
  - { offsetInCU: 0x123B9, offset: 0x123B9, size: 0x8, addend: 0x0, symName: __ZNSt3__111char_traitsIwE3eofEv, symObjAddr: 0x2610, symBinAddr: 0x100004A2C, symSize: 0x8 }
  - { offsetInCU: 0x123CD, offset: 0x123CD, size: 0x8, addend: 0x0, symName: __ZNKSt3__19basic_iosIwNS_11char_traitsIwEEE5widenB7v160006Ec, symObjAddr: 0x2618, symBinAddr: 0x100004A34, symSize: 0x80 }
  - { offsetInCU: 0x12426, offset: 0x12426, size: 0x8, addend: 0x0, symName: __ZNKSt3__15ctypeIwE5widenB7v160006Ec, symObjAddr: 0x26C4, symBinAddr: 0x100004AE0, symSize: 0x34 }
  - { offsetInCU: 0x1245B, offset: 0x1245B, size: 0x8, addend: 0x0, symName: __ZNSt3__112basic_stringIwNS_11char_traitsIwEENS_9allocatorIwEEEC2B7v160006IDnEEPKw, symObjAddr: 0x271C, symBinAddr: 0x100004B38, symSize: 0x60 }
  - { offsetInCU: 0x12499, offset: 0x12499, size: 0x8, addend: 0x0, symName: __ZNSt3__19allocatorIN6refcnt10Swstr_listEEC1B7v160006Ev, symObjAddr: 0x280C, symBinAddr: 0x100004C28, symSize: 0x2C }
  - { offsetInCU: 0x12508, offset: 0x12508, size: 0x8, addend: 0x0, symName: __ZNSt3__118__allocation_guardINS_9allocatorINS_20__shared_ptr_emplaceIN6refcnt10Swstr_listENS1_IS4_EEEEEEEC1B7v160006IS5_EET_m, symObjAddr: 0x2838, symBinAddr: 0x100004C54, symSize: 0x34 }
  - { offsetInCU: 0x12557, offset: 0x12557, size: 0x8, addend: 0x0, symName: __ZNKSt3__118__allocation_guardINS_9allocatorINS_20__shared_ptr_emplaceIN6refcnt10Swstr_listENS1_IS4_EEEEEEE5__getB7v160006Ev, symObjAddr: 0x286C, symBinAddr: 0x100004C88, symSize: 0x18 }
  - { offsetInCU: 0x1257D, offset: 0x1257D, size: 0x8, addend: 0x0, symName: __ZNSt3__120__shared_ptr_emplaceIN6refcnt10Swstr_listENS_9allocatorIS2_EEEC1B7v160006IJEEES4_DpOT_, symObjAddr: 0x2884, symBinAddr: 0x100004CA0, symSize: 0x2C }
  - { offsetInCU: 0x125BB, offset: 0x125BB, size: 0x8, addend: 0x0, symName: __ZNSt3__118__allocation_guardINS_9allocatorINS_20__shared_ptr_emplaceIN6refcnt10Swstr_listENS1_IS4_EEEEEEE13__release_ptrB7v160006Ev, symObjAddr: 0x28B0, symBinAddr: 0x100004CCC, symSize: 0x24 }
  - { offsetInCU: 0x125F0, offset: 0x125F0, size: 0x8, addend: 0x0, symName: __ZNSt3__110shared_ptrIN6refcnt10Swstr_listEE27__create_with_control_blockB7v160006IS2_NS_20__shared_ptr_emplaceIS2_NS_9allocatorIS2_EEEEEES3_PT_PT0_, symObjAddr: 0x28D4, symBinAddr: 0x100004CF0, symSize: 0xA4 }
  - { offsetInCU: 0x12645, offset: 0x12645, size: 0x8, addend: 0x0, symName: __ZNSt3__120__shared_ptr_emplaceIN6refcnt10Swstr_listENS_9allocatorIS2_EEE10__get_elemB7v160006Ev, symObjAddr: 0x2978, symBinAddr: 0x100004D94, symSize: 0x28 }
  - { offsetInCU: 0x1266B, offset: 0x1266B, size: 0x8, addend: 0x0, symName: __ZNSt3__118__allocation_guardINS_9allocatorINS_20__shared_ptr_emplaceIN6refcnt10Swstr_listENS1_IS4_EEEEEEED1B7v160006Ev, symObjAddr: 0x29A0, symBinAddr: 0x100004DBC, symSize: 0x2C }
  - { offsetInCU: 0x12695, offset: 0x12695, size: 0x8, addend: 0x0, symName: __ZNSt3__118__allocation_guardINS_9allocatorINS_20__shared_ptr_emplaceIN6refcnt10Swstr_listENS1_IS4_EEEEEEEC2B7v160006IS5_EET_m, symObjAddr: 0x29CC, symBinAddr: 0x100004DE8, symSize: 0x50 }
  - { offsetInCU: 0x126E4, offset: 0x126E4, size: 0x8, addend: 0x0, symName: __ZNSt3__19allocatorINS_20__shared_ptr_emplaceIN6refcnt10Swstr_listENS0_IS3_EEEEEC1B7v160006IS3_EERKNS0_IT_EE, symObjAddr: 0x2A1C, symBinAddr: 0x100004E38, symSize: 0x34 }
  - { offsetInCU: 0x12721, offset: 0x12721, size: 0x8, addend: 0x0, symName: __ZNSt3__116allocator_traitsINS_9allocatorINS_20__shared_ptr_emplaceIN6refcnt10Swstr_listENS1_IS4_EEEEEEE8allocateB7v160006ERS7_m, symObjAddr: 0x2A50, symBinAddr: 0x100004E6C, symSize: 0x2C }
  - { offsetInCU: 0x12754, offset: 0x12754, size: 0x8, addend: 0x0, symName: __ZNSt3__19allocatorINS_20__shared_ptr_emplaceIN6refcnt10Swstr_listENS0_IS3_EEEEEC2B7v160006IS3_EERKNS0_IT_EE, symObjAddr: 0x2A7C, symBinAddr: 0x100004E98, symSize: 0x30 }
  - { offsetInCU: 0x12791, offset: 0x12791, size: 0x8, addend: 0x0, symName: __ZNSt3__116__non_trivial_ifILb1ENS_9allocatorINS_20__shared_ptr_emplaceIN6refcnt10Swstr_listENS1_IS4_EEEEEEEC2B7v160006Ev, symObjAddr: 0x2AAC, symBinAddr: 0x100004EC8, symSize: 0x14 }
  - { offsetInCU: 0x127BB, offset: 0x127BB, size: 0x8, addend: 0x0, symName: __ZNSt3__19allocatorINS_20__shared_ptr_emplaceIN6refcnt10Swstr_listENS0_IS3_EEEEE8allocateB7v160006Em, symObjAddr: 0x2AC0, symBinAddr: 0x100004EDC, symSize: 0x5C }
  - { offsetInCU: 0x127FA, offset: 0x127FA, size: 0x8, addend: 0x0, symName: __ZNSt3__116allocator_traitsINS_9allocatorINS_20__shared_ptr_emplaceIN6refcnt10Swstr_listENS1_IS4_EEEEEEE8max_sizeB7v160006IS7_vEEmRKS7_, symObjAddr: 0x2B1C, symBinAddr: 0x100004F38, symSize: 0x24 }
  - { offsetInCU: 0x12828, offset: 0x12828, size: 0x8, addend: 0x0, symName: __ZNKSt3__19allocatorINS_20__shared_ptr_emplaceIN6refcnt10Swstr_listENS0_IS3_EEEEE8max_sizeB7v160006Ev, symObjAddr: 0x2BD4, symBinAddr: 0x100004FF0, symSize: 0x20 }
  - { offsetInCU: 0x1284E, offset: 0x1284E, size: 0x8, addend: 0x0, symName: __ZNSt3__120__shared_ptr_emplaceIN6refcnt10Swstr_listENS_9allocatorIS2_EEEC2B7v160006IJEEES4_DpOT_, symObjAddr: 0x2C44, symBinAddr: 0x100005060, symSize: 0xB0 }
  - { offsetInCU: 0x1288C, offset: 0x1288C, size: 0x8, addend: 0x0, symName: __ZNSt3__119__shared_weak_countC2B7v160006El, symObjAddr: 0x2CF4, symBinAddr: 0x100005110, symSize: 0x54 }
  - { offsetInCU: 0x128C4, offset: 0x128C4, size: 0x8, addend: 0x0, symName: __ZNSt3__120__shared_ptr_emplaceIN6refcnt10Swstr_listENS_9allocatorIS2_EEE8_StorageC1B7v160006EOS4_, symObjAddr: 0x2D48, symBinAddr: 0x100005164, symSize: 0x34 }
  - { offsetInCU: 0x128FD, offset: 0x128FD, size: 0x8, addend: 0x0, symName: __ZNSt3__120__shared_ptr_emplaceIN6refcnt10Swstr_listENS_9allocatorIS2_EEE8_StorageD1B7v160006Ev, symObjAddr: 0x2D7C, symBinAddr: 0x100005198, symSize: 0x2C }
  - { offsetInCU: 0x12927, offset: 0x12927, size: 0x8, addend: 0x0, symName: __ZNSt3__120__shared_ptr_emplaceIN6refcnt10Swstr_listENS_9allocatorIS2_EEED1Ev, symObjAddr: 0x2DA8, symBinAddr: 0x1000051C4, symSize: 0x2C }
  - { offsetInCU: 0x12954, offset: 0x12954, size: 0x8, addend: 0x0, symName: __ZNSt3__120__shared_ptr_emplaceIN6refcnt10Swstr_listENS_9allocatorIS2_EEED0Ev, symObjAddr: 0x2DD4, symBinAddr: 0x1000051F0, symSize: 0x30 }
  - { offsetInCU: 0x12981, offset: 0x12981, size: 0x8, addend: 0x0, symName: __ZNSt3__120__shared_ptr_emplaceIN6refcnt10Swstr_listENS_9allocatorIS2_EEE16__on_zero_sharedEv, symObjAddr: 0x2E04, symBinAddr: 0x100005220, symSize: 0x30 }
  - { offsetInCU: 0x129A7, offset: 0x129A7, size: 0x8, addend: 0x0, symName: __ZNSt3__120__shared_ptr_emplaceIN6refcnt10Swstr_listENS_9allocatorIS2_EEE21__on_zero_shared_weakEv, symObjAddr: 0x2E34, symBinAddr: 0x100005250, symSize: 0x5C }
  - { offsetInCU: 0x129E8, offset: 0x129E8, size: 0x8, addend: 0x0, symName: __ZNSt3__114__shared_countC2B7v160006El, symObjAddr: 0x2E90, symBinAddr: 0x1000052AC, symSize: 0x30 }
  - { offsetInCU: 0x12A20, offset: 0x12A20, size: 0x8, addend: 0x0, symName: __ZNSt3__120__shared_ptr_emplaceIN6refcnt10Swstr_listENS_9allocatorIS2_EEE8_StorageC2B7v160006EOS4_, symObjAddr: 0x2EC0, symBinAddr: 0x1000052DC, symSize: 0x30 }
  - { offsetInCU: 0x12A59, offset: 0x12A59, size: 0x8, addend: 0x0, symName: __ZNSt3__120__shared_ptr_emplaceIN6refcnt10Swstr_listENS_9allocatorIS2_EEE8_Storage11__get_allocEv, symObjAddr: 0x2EF0, symBinAddr: 0x10000530C, symSize: 0x3C }
  - { offsetInCU: 0x12AAC, offset: 0x12AAC, size: 0x8, addend: 0x0, symName: __ZNSt3__117__compressed_pairINS_9allocatorIN6refcnt10Swstr_listEEES3_E16__get_first_baseB7v160006EPS5_, symObjAddr: 0x2F2C, symBinAddr: 0x100005348, symSize: 0x14 }
  - { offsetInCU: 0x12ACF, offset: 0x12ACF, size: 0x8, addend: 0x0, symName: __ZNSt3__120__shared_ptr_emplaceIN6refcnt10Swstr_listENS_9allocatorIS2_EEE8_StorageD2B7v160006Ev, symObjAddr: 0x2F40, symBinAddr: 0x10000535C, symSize: 0x2C }
  - { offsetInCU: 0x12AF9, offset: 0x12AF9, size: 0x8, addend: 0x0, symName: __ZNSt3__120__shared_ptr_emplaceIN6refcnt10Swstr_listENS_9allocatorIS2_EEED2Ev, symObjAddr: 0x2F6C, symBinAddr: 0x100005388, symSize: 0x48 }
  - { offsetInCU: 0x12B26, offset: 0x12B26, size: 0x8, addend: 0x0, symName: __ZNSt3__120__shared_ptr_emplaceIN6refcnt10Swstr_listENS_9allocatorIS2_EEE11__get_allocB7v160006Ev, symObjAddr: 0x2FB4, symBinAddr: 0x1000053D0, symSize: 0x28 }
  - { offsetInCU: 0x12B4C, offset: 0x12B4C, size: 0x8, addend: 0x0, symName: __ZNSt3__116allocator_traitsINS_9allocatorINS_20__shared_ptr_emplaceIN6refcnt10Swstr_listENS1_IS4_EEEEEEE10deallocateB7v160006ERS7_PS6_m, symObjAddr: 0x2FDC, symBinAddr: 0x1000053F8, symSize: 0x34 }
  - { offsetInCU: 0x12B8E, offset: 0x12B8E, size: 0x8, addend: 0x0, symName: __ZNSt3__114pointer_traitsIPNS_20__shared_ptr_emplaceIN6refcnt10Swstr_listENS_9allocatorIS3_EEEEE10pointer_toB7v160006ERS6_, symObjAddr: 0x3010, symBinAddr: 0x10000542C, symSize: 0x14 }
  - { offsetInCU: 0x12BB1, offset: 0x12BB1, size: 0x8, addend: 0x0, symName: __ZNSt3__19allocatorINS_20__shared_ptr_emplaceIN6refcnt10Swstr_listENS0_IS3_EEEEE10deallocateB7v160006EPS5_m, symObjAddr: 0x3024, symBinAddr: 0x100005440, symSize: 0x44 }
  - { offsetInCU: 0x12BF3, offset: 0x12BF3, size: 0x8, addend: 0x0, symName: __ZNSt3__110shared_ptrIN6refcnt10Swstr_listEEC1B7v160006Ev, symObjAddr: 0x3068, symBinAddr: 0x100005484, symSize: 0x2C }
  - { offsetInCU: 0x12C1D, offset: 0x12C1D, size: 0x8, addend: 0x0, symName: __ZNSt3__110shared_ptrIN6refcnt10Swstr_listEE18__enable_weak_thisB7v160006Ez, symObjAddr: 0x3094, symBinAddr: 0x1000054B0, symSize: 0x10 }
  - { offsetInCU: 0x12C44, offset: 0x12C44, size: 0x8, addend: 0x0, symName: __ZNSt3__110shared_ptrIN6refcnt10Swstr_listEEC2B7v160006Ev, symObjAddr: 0x30A4, symBinAddr: 0x1000054C0, symSize: 0x1C }
  - { offsetInCU: 0x12C6E, offset: 0x12C6E, size: 0x8, addend: 0x0, symName: __ZNSt3__120__shared_ptr_emplaceIN6refcnt10Swstr_listENS_9allocatorIS2_EEE8_Storage10__get_elemEv, symObjAddr: 0x30C0, symBinAddr: 0x1000054DC, symSize: 0x3C }
  - { offsetInCU: 0x12CC1, offset: 0x12CC1, size: 0x8, addend: 0x0, symName: __ZNSt3__117__compressed_pairINS_9allocatorIN6refcnt10Swstr_listEEES3_E17__get_second_baseB7v160006EPS5_, symObjAddr: 0x30FC, symBinAddr: 0x100005518, symSize: 0x14 }
  - { offsetInCU: 0x12CE4, offset: 0x12CE4, size: 0x8, addend: 0x0, symName: __ZNSt3__118__allocation_guardINS_9allocatorINS_20__shared_ptr_emplaceIN6refcnt10Swstr_listENS1_IS4_EEEEEEED2B7v160006Ev, symObjAddr: 0x3110, symBinAddr: 0x10000552C, symSize: 0x58 }
  - { offsetInCU: 0x12D0E, offset: 0x12D0E, size: 0x8, addend: 0x0, symName: __ZNSt3__19allocatorIN6refcnt10Swstr_listEEC2B7v160006Ev, symObjAddr: 0x3168, symBinAddr: 0x100005584, symSize: 0x2C }
  - { offsetInCU: 0x12D38, offset: 0x12D38, size: 0x8, addend: 0x0, symName: __ZNSt3__116__non_trivial_ifILb1ENS_9allocatorIN6refcnt10Swstr_listEEEEC2B7v160006Ev, symObjAddr: 0x3194, symBinAddr: 0x1000055B0, symSize: 0x14 }
  - { offsetInCU: 0x12D62, offset: 0x12D62, size: 0x8, addend: 0x0, symName: __ZNSt3__110shared_ptrIN6refcnt10Swstr_listEED2B7v160006Ev, symObjAddr: 0x31A8, symBinAddr: 0x1000055C4, symSize: 0x54 }
  - { offsetInCU: 0x12D8C, offset: 0x12D8C, size: 0x8, addend: 0x0, symName: __ZNSt3__119__shared_weak_count16__release_sharedB7v160006Ev, symObjAddr: 0x31FC, symBinAddr: 0x100005618, symSize: 0x3C }
  - { offsetInCU: 0x12DB2, offset: 0x12DB2, size: 0x8, addend: 0x0, symName: __ZNSt3__114__shared_count16__release_sharedB7v160006Ev, symObjAddr: 0x3238, symBinAddr: 0x100005654, symSize: 0x7C }
  - { offsetInCU: 0x12DD8, offset: 0x12DD8, size: 0x8, addend: 0x0, symName: '__ZNSt3__18functionIFvRKNS_12basic_stringIwNS_11char_traitsIwEENS_9allocatorIwEEEEEEC2IZ20execute_filter_chainvE3$_0vEET_', symObjAddr: 0x32E4, symBinAddr: 0x100005700, symSize: 0x30 }
  - { offsetInCU: 0x12E1D, offset: 0x12E1D, size: 0x8, addend: 0x0, symName: '__ZNSt3__110__function12__value_funcIFvRKNS_12basic_stringIwNS_11char_traitsIwEENS_9allocatorIwEEEEEEC1B7v160006IZ20execute_filter_chainvE3$_0vEEOT_', symObjAddr: 0x3314, symBinAddr: 0x100005730, symSize: 0x50 }
  - { offsetInCU: 0x12E60, offset: 0x12E60, size: 0x8, addend: 0x0, symName: '__ZNSt3__19allocatorIZ20execute_filter_chainvE3$_0EC1B7v160006Ev', symObjAddr: 0x3364, symBinAddr: 0x100005780, symSize: 0x2C }
  - { offsetInCU: 0x12E8A, offset: 0x12E8A, size: 0x8, addend: 0x0, symName: '__ZNSt3__110__function12__value_funcIFvRKNS_12basic_stringIwNS_11char_traitsIwEENS_9allocatorIwEEEEEEC1B7v160006IZ20execute_filter_chainvE3$_0NS5_ISD_EEEEOT_RKT0_', symObjAddr: 0x3390, symBinAddr: 0x1000057AC, symSize: 0x3C }
  - { offsetInCU: 0x12EE4, offset: 0x12EE4, size: 0x8, addend: 0x0, symName: '__ZNSt3__19allocatorIZ20execute_filter_chainvE3$_0EC2B7v160006Ev', symObjAddr: 0x33CC, symBinAddr: 0x1000057E8, symSize: 0x2C }
  - { offsetInCU: 0x12F0E, offset: 0x12F0E, size: 0x8, addend: 0x0, symName: '__ZNSt3__116__non_trivial_ifILb1ENS_9allocatorIZ20execute_filter_chainvE3$_0EEEC2B7v160006Ev', symObjAddr: 0x33F8, symBinAddr: 0x100005814, symSize: 0x14 }
  - { offsetInCU: 0x12F38, offset: 0x12F38, size: 0x8, addend: 0x0, symName: '__ZNSt3__110__function12__value_funcIFvRKNS_12basic_stringIwNS_11char_traitsIwEENS_9allocatorIwEEEEEEC2B7v160006IZ20execute_filter_chainvE3$_0NS5_ISD_EEEEOT_RKT0_', symObjAddr: 0x340C, symBinAddr: 0x100005828, symSize: 0x94 }
  - { offsetInCU: 0x12FE5, offset: 0x12FE5, size: 0x8, addend: 0x0, symName: '__ZNSt3__19allocatorINS_10__function6__funcIZ20execute_filter_chainvE3$_0NS0_IS3_EEFvRKNS_12basic_stringIwNS_11char_traitsIwEENS0_IwEEEEEEEEC1B7v160006IS3_EERKNS0_IT_EE', symObjAddr: 0x34B8, symBinAddr: 0x1000058D4, symSize: 0x34 }
  - { offsetInCU: 0x13028, offset: 0x13028, size: 0x8, addend: 0x0, symName: '__ZNSt3__19allocatorIZ20execute_filter_chainvE3$_0EC1B7v160006INS_10__function6__funcIS1_S2_FvRKNS_12basic_stringIwNS_11char_traitsIwEENS0_IwEEEEEEEEERKNS0_IT_EE', symObjAddr: 0x34EC, symBinAddr: 0x100005908, symSize: 0x34 }
  - { offsetInCU: 0x13065, offset: 0x13065, size: 0x8, addend: 0x0, symName: '__ZNSt3__110__function6__funcIZ20execute_filter_chainvE3$_0NS_9allocatorIS2_EEFvRKNS_12basic_stringIwNS_11char_traitsIwEENS3_IwEEEEEEC1B7v160006EOS2_OS4_', symObjAddr: 0x3520, symBinAddr: 0x10000593C, symSize: 0x3C }
  - { offsetInCU: 0x130AD, offset: 0x130AD, size: 0x8, addend: 0x0, symName: '__ZNSt3__19allocatorINS_10__function6__funcIZ20execute_filter_chainvE3$_0NS0_IS3_EEFvRKNS_12basic_stringIwNS_11char_traitsIwEENS0_IwEEEEEEEEC2B7v160006IS3_EERKNS0_IT_EE', symObjAddr: 0x355C, symBinAddr: 0x100005978, symSize: 0x30 }
  - { offsetInCU: 0x130EA, offset: 0x130EA, size: 0x8, addend: 0x0, symName: '__ZNSt3__116__non_trivial_ifILb1ENS_9allocatorINS_10__function6__funcIZ20execute_filter_chainvE3$_0NS1_IS4_EEFvRKNS_12basic_stringIwNS_11char_traitsIwEENS1_IwEEEEEEEEEEC2B7v160006Ev', symObjAddr: 0x358C, symBinAddr: 0x1000059A8, symSize: 0x14 }
  - { offsetInCU: 0x13114, offset: 0x13114, size: 0x8, addend: 0x0, symName: '__ZNSt3__19allocatorIZ20execute_filter_chainvE3$_0EC2B7v160006INS_10__function6__funcIS1_S2_FvRKNS_12basic_stringIwNS_11char_traitsIwEENS0_IwEEEEEEEEERKNS0_IT_EE', symObjAddr: 0x35A0, symBinAddr: 0x1000059BC, symSize: 0x30 }
  - { offsetInCU: 0x13151, offset: 0x13151, size: 0x8, addend: 0x0, symName: '__ZNSt3__110__function6__funcIZ20execute_filter_chainvE3$_0NS_9allocatorIS2_EEFvRKNS_12basic_stringIwNS_11char_traitsIwEENS3_IwEEEEEEC2B7v160006EOS2_OS4_', symObjAddr: 0x35D0, symBinAddr: 0x1000059EC, symSize: 0x88 }
  - { offsetInCU: 0x13199, offset: 0x13199, size: 0x8, addend: 0x0, symName: __ZNSt3__110__function6__baseIFvRKNS_12basic_stringIwNS_11char_traitsIwEENS_9allocatorIwEEEEEEC2B7v160006Ev, symObjAddr: 0x3658, symBinAddr: 0x100005A74, symSize: 0x24 }
  - { offsetInCU: 0x131C3, offset: 0x131C3, size: 0x8, addend: 0x0, symName: '__ZNSt3__110__function12__alloc_funcIZ20execute_filter_chainvE3$_0NS_9allocatorIS2_EEFvRKNS_12basic_stringIwNS_11char_traitsIwEENS3_IwEEEEEEC1B7v160006EOS2_OS4_', symObjAddr: 0x367C, symBinAddr: 0x100005A98, symSize: 0x3C }
  - { offsetInCU: 0x13209, offset: 0x13209, size: 0x8, addend: 0x0, symName: __ZNSt3__110__function6__baseIFvRKNS_12basic_stringIwNS_11char_traitsIwEENS_9allocatorIwEEEEEED2Ev, symObjAddr: 0x36B8, symBinAddr: 0x100005AD4, symSize: 0x14 }
  - { offsetInCU: 0x13233, offset: 0x13233, size: 0x8, addend: 0x0, symName: '__ZNSt3__110__function6__funcIZ20execute_filter_chainvE3$_0NS_9allocatorIS2_EEFvRKNS_12basic_stringIwNS_11char_traitsIwEENS3_IwEEEEEED1Ev', symObjAddr: 0x36CC, symBinAddr: 0x100005AE8, symSize: 0x2C }
  - { offsetInCU: 0x13260, offset: 0x13260, size: 0x8, addend: 0x0, symName: '__ZNSt3__110__function6__funcIZ20execute_filter_chainvE3$_0NS_9allocatorIS2_EEFvRKNS_12basic_stringIwNS_11char_traitsIwEENS3_IwEEEEEED0Ev', symObjAddr: 0x36F8, symBinAddr: 0x100005B14, symSize: 0x30 }
  - { offsetInCU: 0x1328D, offset: 0x1328D, size: 0x8, addend: 0x0, symName: '__ZNKSt3__110__function6__funcIZ20execute_filter_chainvE3$_0NS_9allocatorIS2_EEFvRKNS_12basic_stringIwNS_11char_traitsIwEENS3_IwEEEEEE7__cloneEv', symObjAddr: 0x3728, symBinAddr: 0x100005B44, symSize: 0xFC }
  - { offsetInCU: 0x132DF, offset: 0x132DF, size: 0x8, addend: 0x0, symName: '__ZNKSt3__110__function6__funcIZ20execute_filter_chainvE3$_0NS_9allocatorIS2_EEFvRKNS_12basic_stringIwNS_11char_traitsIwEENS3_IwEEEEEE7__cloneEPNS0_6__baseISC_EE', symObjAddr: 0x3824, symBinAddr: 0x100005C40, symSize: 0x58 }
  - { offsetInCU: 0x13316, offset: 0x13316, size: 0x8, addend: 0x0, symName: '__ZNSt3__110__function6__funcIZ20execute_filter_chainvE3$_0NS_9allocatorIS2_EEFvRKNS_12basic_stringIwNS_11char_traitsIwEENS3_IwEEEEEE7destroyEv', symObjAddr: 0x387C, symBinAddr: 0x100005C98, symSize: 0x28 }
  - { offsetInCU: 0x1333E, offset: 0x1333E, size: 0x8, addend: 0x0, symName: '__ZNSt3__110__function6__funcIZ20execute_filter_chainvE3$_0NS_9allocatorIS2_EEFvRKNS_12basic_stringIwNS_11char_traitsIwEENS3_IwEEEEEE18destroy_deallocateEv', symObjAddr: 0x38A4, symBinAddr: 0x100005CC0, symSize: 0x58 }
  - { offsetInCU: 0x13381, offset: 0x13381, size: 0x8, addend: 0x0, symName: '__ZNSt3__110__function6__funcIZ20execute_filter_chainvE3$_0NS_9allocatorIS2_EEFvRKNS_12basic_stringIwNS_11char_traitsIwEENS3_IwEEEEEEclESB_', symObjAddr: 0x38FC, symBinAddr: 0x100005D18, symSize: 0x30 }
  - { offsetInCU: 0x133B8, offset: 0x133B8, size: 0x8, addend: 0x0, symName: '__ZNKSt3__110__function6__funcIZ20execute_filter_chainvE3$_0NS_9allocatorIS2_EEFvRKNS_12basic_stringIwNS_11char_traitsIwEENS3_IwEEEEEE6targetERKSt9type_info', symObjAddr: 0x392C, symBinAddr: 0x100005D48, symSize: 0x60 }
  - { offsetInCU: 0x133EF, offset: 0x133EF, size: 0x8, addend: 0x0, symName: '__ZNKSt3__110__function6__funcIZ20execute_filter_chainvE3$_0NS_9allocatorIS2_EEFvRKNS_12basic_stringIwNS_11char_traitsIwEENS3_IwEEEEEE11target_typeEv', symObjAddr: 0x398C, symBinAddr: 0x100005DA8, symSize: 0x18 }
  - { offsetInCU: 0x13417, offset: 0x13417, size: 0x8, addend: 0x0, symName: __ZNSt3__110__function6__baseIFvRKNS_12basic_stringIwNS_11char_traitsIwEENS_9allocatorIwEEEEEED1Ev, symObjAddr: 0x39A4, symBinAddr: 0x100005DC0, symSize: 0x14 }
  - { offsetInCU: 0x13441, offset: 0x13441, size: 0x8, addend: 0x0, symName: __ZNSt3__110__function6__baseIFvRKNS_12basic_stringIwNS_11char_traitsIwEENS_9allocatorIwEEEEEED0Ev, symObjAddr: 0x39B8, symBinAddr: 0x100005DD4, symSize: 0xC }
  - { offsetInCU: 0x1346B, offset: 0x1346B, size: 0x8, addend: 0x0, symName: '__ZNSt3__110__function12__alloc_funcIZ20execute_filter_chainvE3$_0NS_9allocatorIS2_EEFvRKNS_12basic_stringIwNS_11char_traitsIwEENS3_IwEEEEEEC2B7v160006EOS2_OS4_', symObjAddr: 0x39C4, symBinAddr: 0x100005DE0, symSize: 0x5C }
  - { offsetInCU: 0x134B1, offset: 0x134B1, size: 0x8, addend: 0x0, symName: '__ZNSt3__117__compressed_pairIZ20execute_filter_chainvE3$_0NS_9allocatorIS1_EEEC1B7v160006IJOS1_EJOS3_EEENS_21piecewise_construct_tENS_5tupleIJDpT_EEENS9_IJDpT0_EEE', symObjAddr: 0x3A78, symBinAddr: 0x100005E94, symSize: 0x3C }
  - { offsetInCU: 0x1351B, offset: 0x1351B, size: 0x8, addend: 0x0, symName: '__ZNSt3__15tupleIJOZ20execute_filter_chainvE3$_0EEC1B7v160006IJS1_ELi0EEEDpOT_', symObjAddr: 0x3AB4, symBinAddr: 0x100005ED0, symSize: 0x34 }
  - { offsetInCU: 0x13565, offset: 0x13565, size: 0x8, addend: 0x0, symName: '__ZNSt3__15tupleIJOZ20execute_filter_chainvE3$_0EEC2B7v160006IJS1_ELi0EEEDpOT_', symObjAddr: 0x3AE8, symBinAddr: 0x100005F04, symSize: 0x34 }
  - { offsetInCU: 0x135AF, offset: 0x135AF, size: 0x8, addend: 0x0, symName: '__ZNSt3__112__tuple_implINS_15__tuple_indicesIJLm0EEEEJOZ20execute_filter_chainvE3$_0EEC1B7v160006IJLm0EEJS4_EJEJEJS3_EEENS1_IJXspT_EEEENS_13__tuple_typesIJDpT0_EEENS1_IJXspT1_EEEENS8_IJDpT2_EEEDpOT3_', symObjAddr: 0x3B1C, symBinAddr: 0x100005F38, symSize: 0x34 }
  - { offsetInCU: 0x13644, offset: 0x13644, size: 0x8, addend: 0x0, symName: '__ZNSt3__112__tuple_implINS_15__tuple_indicesIJLm0EEEEJOZ20execute_filter_chainvE3$_0EEC2B7v160006IJLm0EEJS4_EJEJEJS3_EEENS1_IJXspT_EEEENS_13__tuple_typesIJDpT0_EEENS1_IJXspT1_EEEENS8_IJDpT2_EEEDpOT3_', symObjAddr: 0x3B50, symBinAddr: 0x100005F6C, symSize: 0x34 }
  - { offsetInCU: 0x136D9, offset: 0x136D9, size: 0x8, addend: 0x0, symName: '__ZNSt3__112__tuple_leafILm0EOZ20execute_filter_chainvE3$_0Lb0EEC2B7v160006IS1_vEEOT_', symObjAddr: 0x3B84, symBinAddr: 0x100005FA0, symSize: 0x20 }
  - { offsetInCU: 0x1371C, offset: 0x1371C, size: 0x8, addend: 0x0, symName: '__ZNSt3__15tupleIJONS_9allocatorIZ20execute_filter_chainvE3$_0EEEEC1B7v160006IJS3_ELi0EEEDpOT_', symObjAddr: 0x3BA4, symBinAddr: 0x100005FC0, symSize: 0x34 }
  - { offsetInCU: 0x13766, offset: 0x13766, size: 0x8, addend: 0x0, symName: '__ZNSt3__15tupleIJONS_9allocatorIZ20execute_filter_chainvE3$_0EEEEC2B7v160006IJS3_ELi0EEEDpOT_', symObjAddr: 0x3BD8, symBinAddr: 0x100005FF4, symSize: 0x34 }
  - { offsetInCU: 0x137B0, offset: 0x137B0, size: 0x8, addend: 0x0, symName: '__ZNSt3__112__tuple_implINS_15__tuple_indicesIJLm0EEEEJONS_9allocatorIZ20execute_filter_chainvE3$_0EEEEC1B7v160006IJLm0EEJS6_EJEJEJS5_EEENS1_IJXspT_EEEENS_13__tuple_typesIJDpT0_EEENS1_IJXspT1_EEEENSA_IJDpT2_EEEDpOT3_', symObjAddr: 0x3C0C, symBinAddr: 0x100006028, symSize: 0x34 }
  - { offsetInCU: 0x13845, offset: 0x13845, size: 0x8, addend: 0x0, symName: '__ZNSt3__112__tuple_implINS_15__tuple_indicesIJLm0EEEEJONS_9allocatorIZ20execute_filter_chainvE3$_0EEEEC2B7v160006IJLm0EEJS6_EJEJEJS5_EEENS1_IJXspT_EEEENS_13__tuple_typesIJDpT0_EEENS1_IJXspT1_EEEENSA_IJDpT2_EEEDpOT3_', symObjAddr: 0x3C40, symBinAddr: 0x10000605C, symSize: 0x34 }
  - { offsetInCU: 0x138DA, offset: 0x138DA, size: 0x8, addend: 0x0, symName: '__ZNSt3__112__tuple_leafILm0EONS_9allocatorIZ20execute_filter_chainvE3$_0EELb0EEC2B7v160006IS3_vEEOT_', symObjAddr: 0x3C74, symBinAddr: 0x100006090, symSize: 0x20 }
  - { offsetInCU: 0x1391D, offset: 0x1391D, size: 0x8, addend: 0x0, symName: '__ZNSt3__117__compressed_pairIZ20execute_filter_chainvE3$_0NS_9allocatorIS1_EEEC2B7v160006IJOS1_EJOS3_EEENS_21piecewise_construct_tENS_5tupleIJDpT_EEENS9_IJDpT0_EEE', symObjAddr: 0x3C94, symBinAddr: 0x1000060B0, symSize: 0x54 }
  - { offsetInCU: 0x13987, offset: 0x13987, size: 0x8, addend: 0x0, symName: '__ZNSt3__122__compressed_pair_elemIZ20execute_filter_chainvE3$_0Li0ELb1EEC2B7v160006IJOS1_EJLm0EEEENS_21piecewise_construct_tENS_5tupleIJDpT_EEENS_15__tuple_indicesIJXspT0_EEEE', symObjAddr: 0x3CE8, symBinAddr: 0x100006104, symSize: 0x38 }
  - { offsetInCU: 0x139EA, offset: 0x139EA, size: 0x8, addend: 0x0, symName: '__ZNSt3__122__compressed_pair_elemINS_9allocatorIZ20execute_filter_chainvE3$_0EELi1ELb1EEC2B7v160006IJOS3_EJLm0EEEENS_21piecewise_construct_tENS_5tupleIJDpT_EEENS_15__tuple_indicesIJXspT0_EEEE', symObjAddr: 0x3D20, symBinAddr: 0x10000613C, symSize: 0x38 }
  - { offsetInCU: 0x13A4D, offset: 0x13A4D, size: 0x8, addend: 0x0, symName: '__ZNSt3__112__tuple_leafILm0EOZ20execute_filter_chainvE3$_0Lb0EE3getB7v160006Ev', symObjAddr: 0x3D7C, symBinAddr: 0x100006198, symSize: 0x18 }
  - { offsetInCU: 0x13A73, offset: 0x13A73, size: 0x8, addend: 0x0, symName: '__ZNSt3__112__tuple_leafILm0EONS_9allocatorIZ20execute_filter_chainvE3$_0EELb0EE3getB7v160006Ev', symObjAddr: 0x3DB8, symBinAddr: 0x1000061D4, symSize: 0x18 }
  - { offsetInCU: 0x13A99, offset: 0x13A99, size: 0x8, addend: 0x0, symName: '__ZNSt3__110__function6__funcIZ20execute_filter_chainvE3$_0NS_9allocatorIS2_EEFvRKNS_12basic_stringIwNS_11char_traitsIwEENS3_IwEEEEEED2Ev', symObjAddr: 0x3DD0, symBinAddr: 0x1000061EC, symSize: 0x2C }
  - { offsetInCU: 0x13AC6, offset: 0x13AC6, size: 0x8, addend: 0x0, symName: '__ZNKSt3__110__function12__alloc_funcIZ20execute_filter_chainvE3$_0NS_9allocatorIS2_EEFvRKNS_12basic_stringIwNS_11char_traitsIwEENS3_IwEEEEEE15__get_allocatorB7v160006Ev', symObjAddr: 0x3DFC, symBinAddr: 0x100006218, symSize: 0x24 }
  - { offsetInCU: 0x13AEC, offset: 0x13AEC, size: 0x8, addend: 0x0, symName: '__ZNSt3__19allocatorINS_10__function6__funcIZ20execute_filter_chainvE3$_0NS0_IS3_EEFvRKNS_12basic_stringIwNS_11char_traitsIwEENS0_IwEEEEEEEE8allocateB7v160006Em', symObjAddr: 0x3E20, symBinAddr: 0x10000623C, symSize: 0x58 }
  - { offsetInCU: 0x13B32, offset: 0x13B32, size: 0x8, addend: 0x0, symName: '__ZNSt3__122__allocator_destructorINS_9allocatorINS_10__function6__funcIZ20execute_filter_chainvE3$_0NS1_IS4_EEFvRKNS_12basic_stringIwNS_11char_traitsIwEENS1_IwEEEEEEEEEEC1B7v160006ERSF_m', symObjAddr: 0x3E78, symBinAddr: 0x100006294, symSize: 0x3C }
  - { offsetInCU: 0x13C19, offset: 0x13C19, size: 0x8, addend: 0x0, symName: '__ZNSt3__110unique_ptrINS_10__function6__funcIZ20execute_filter_chainvE3$_0NS_9allocatorIS3_EEFvRKNS_12basic_stringIwNS_11char_traitsIwEENS4_IwEEEEEEENS_22__allocator_destructorINS4_ISE_EEEEEC1B7v160006ILb1EvEEPSE_NS_16__dependent_typeINS_27__unique_ptr_deleter_sfinaeISH_EEXT_EE20__good_rval_ref_typeE', symObjAddr: 0x3EB4, symBinAddr: 0x1000062D0, symSize: 0x3C }
  - { offsetInCU: 0x13C6A, offset: 0x13C6A, size: 0x8, addend: 0x0, symName: '__ZNKSt3__110unique_ptrINS_10__function6__funcIZ20execute_filter_chainvE3$_0NS_9allocatorIS3_EEFvRKNS_12basic_stringIwNS_11char_traitsIwEENS4_IwEEEEEEENS_22__allocator_destructorINS4_ISE_EEEEE3getB7v160006Ev', symObjAddr: 0x3EF0, symBinAddr: 0x10000630C, symSize: 0x28 }
  - { offsetInCU: 0x13C90, offset: 0x13C90, size: 0x8, addend: 0x0, symName: '__ZNKSt3__110__function12__alloc_funcIZ20execute_filter_chainvE3$_0NS_9allocatorIS2_EEFvRKNS_12basic_stringIwNS_11char_traitsIwEENS3_IwEEEEEE8__targetB7v160006Ev', symObjAddr: 0x3F18, symBinAddr: 0x100006334, symSize: 0x24 }
  - { offsetInCU: 0x13CB6, offset: 0x13CB6, size: 0x8, addend: 0x0, symName: '__ZNSt3__110__function6__funcIZ20execute_filter_chainvE3$_0NS_9allocatorIS2_EEFvRKNS_12basic_stringIwNS_11char_traitsIwEENS3_IwEEEEEEC1B7v160006ERKS2_OS4_', symObjAddr: 0x3F3C, symBinAddr: 0x100006358, symSize: 0x3C }
  - { offsetInCU: 0x13CFE, offset: 0x13CFE, size: 0x8, addend: 0x0, symName: '__ZNSt3__110unique_ptrINS_10__function6__funcIZ20execute_filter_chainvE3$_0NS_9allocatorIS3_EEFvRKNS_12basic_stringIwNS_11char_traitsIwEENS4_IwEEEEEEENS_22__allocator_destructorINS4_ISE_EEEEE7releaseB7v160006Ev', symObjAddr: 0x3F78, symBinAddr: 0x100006394, symSize: 0x44 }
  - { offsetInCU: 0x13D33, offset: 0x13D33, size: 0x8, addend: 0x0, symName: '__ZNSt3__110unique_ptrINS_10__function6__funcIZ20execute_filter_chainvE3$_0NS_9allocatorIS3_EEFvRKNS_12basic_stringIwNS_11char_traitsIwEENS4_IwEEEEEEENS_22__allocator_destructorINS4_ISE_EEEEED1B7v160006Ev', symObjAddr: 0x3FBC, symBinAddr: 0x1000063D8, symSize: 0x2C }
  - { offsetInCU: 0x13D5D, offset: 0x13D5D, size: 0x8, addend: 0x0, symName: '__ZNKSt3__117__compressed_pairIZ20execute_filter_chainvE3$_0NS_9allocatorIS1_EEE6secondB7v160006Ev', symObjAddr: 0x3FE8, symBinAddr: 0x100006404, symSize: 0x24 }
  - { offsetInCU: 0x13D83, offset: 0x13D83, size: 0x8, addend: 0x0, symName: '__ZNKSt3__122__compressed_pair_elemINS_9allocatorIZ20execute_filter_chainvE3$_0EELi1ELb1EE5__getB7v160006Ev', symObjAddr: 0x400C, symBinAddr: 0x100006428, symSize: 0x14 }
  - { offsetInCU: 0x13DB4, offset: 0x13DB4, size: 0x8, addend: 0x0, symName: '__ZNSt3__116allocator_traitsINS_9allocatorINS_10__function6__funcIZ20execute_filter_chainvE3$_0NS1_IS4_EEFvRKNS_12basic_stringIwNS_11char_traitsIwEENS1_IwEEEEEEEEEE8max_sizeB7v160006ISF_vEEmRKSF_', symObjAddr: 0x4020, symBinAddr: 0x10000643C, symSize: 0x24 }
  - { offsetInCU: 0x13DE2, offset: 0x13DE2, size: 0x8, addend: 0x0, symName: '__ZNKSt3__19allocatorINS_10__function6__funcIZ20execute_filter_chainvE3$_0NS0_IS3_EEFvRKNS_12basic_stringIwNS_11char_traitsIwEENS0_IwEEEEEEEE8max_sizeB7v160006Ev', symObjAddr: 0x4044, symBinAddr: 0x100006460, symSize: 0x14 }
  - { offsetInCU: 0x13E08, offset: 0x13E08, size: 0x8, addend: 0x0, symName: '__ZNSt3__122__allocator_destructorINS_9allocatorINS_10__function6__funcIZ20execute_filter_chainvE3$_0NS1_IS4_EEFvRKNS_12basic_stringIwNS_11char_traitsIwEENS1_IwEEEEEEEEEEC2B7v160006ERSF_m', symObjAddr: 0x4058, symBinAddr: 0x100006474, symSize: 0x2C }
  - { offsetInCU: 0x13E4E, offset: 0x13E4E, size: 0x8, addend: 0x0, symName: '__ZNSt3__110unique_ptrINS_10__function6__funcIZ20execute_filter_chainvE3$_0NS_9allocatorIS3_EEFvRKNS_12basic_stringIwNS_11char_traitsIwEENS4_IwEEEEEEENS_22__allocator_destructorINS4_ISE_EEEEEC2B7v160006ILb1EvEEPSE_NS_16__dependent_typeINS_27__unique_ptr_deleter_sfinaeISH_EEXT_EE20__good_rval_ref_typeE', symObjAddr: 0x4084, symBinAddr: 0x1000064A0, symSize: 0x48 }
  - { offsetInCU: 0x13E9F, offset: 0x13E9F, size: 0x8, addend: 0x0, symName: '__ZNSt3__117__compressed_pairIPNS_10__function6__funcIZ20execute_filter_chainvE3$_0NS_9allocatorIS3_EEFvRKNS_12basic_stringIwNS_11char_traitsIwEENS4_IwEEEEEEENS_22__allocator_destructorINS4_ISE_EEEEEC1B7v160006IRSF_SI_EEOT_OT0_', symObjAddr: 0x40CC, symBinAddr: 0x1000064E8, symSize: 0x3C }
  - { offsetInCU: 0x13EF7, offset: 0x13EF7, size: 0x8, addend: 0x0, symName: '__ZNSt3__117__compressed_pairIPNS_10__function6__funcIZ20execute_filter_chainvE3$_0NS_9allocatorIS3_EEFvRKNS_12basic_stringIwNS_11char_traitsIwEENS4_IwEEEEEEENS_22__allocator_destructorINS4_ISE_EEEEEC2B7v160006IRSF_SI_EEOT_OT0_', symObjAddr: 0x4108, symBinAddr: 0x100006524, symSize: 0x48 }
  - { offsetInCU: 0x13F4F, offset: 0x13F4F, size: 0x8, addend: 0x0, symName: '__ZNSt3__122__compressed_pair_elemIPNS_10__function6__funcIZ20execute_filter_chainvE3$_0NS_9allocatorIS3_EEFvRKNS_12basic_stringIwNS_11char_traitsIwEENS4_IwEEEEEEELi0ELb0EEC2B7v160006IRSF_vEEOT_', symObjAddr: 0x4150, symBinAddr: 0x10000656C, symSize: 0x24 }
  - { offsetInCU: 0x13F91, offset: 0x13F91, size: 0x8, addend: 0x0, symName: '__ZNSt3__122__compressed_pair_elemINS_22__allocator_destructorINS_9allocatorINS_10__function6__funcIZ20execute_filter_chainvE3$_0NS2_IS5_EEFvRKNS_12basic_stringIwNS_11char_traitsIwEENS2_IwEEEEEEEEEEELi1ELb0EEC2B7v160006ISH_vEEOT_', symObjAddr: 0x4174, symBinAddr: 0x100006590, symSize: 0x24 }
  - { offsetInCU: 0x13FD3, offset: 0x13FD3, size: 0x8, addend: 0x0, symName: '__ZNKSt3__117__compressed_pairIPNS_10__function6__funcIZ20execute_filter_chainvE3$_0NS_9allocatorIS3_EEFvRKNS_12basic_stringIwNS_11char_traitsIwEENS4_IwEEEEEEENS_22__allocator_destructorINS4_ISE_EEEEE5firstB7v160006Ev', symObjAddr: 0x4198, symBinAddr: 0x1000065B4, symSize: 0x24 }
  - { offsetInCU: 0x13FF9, offset: 0x13FF9, size: 0x8, addend: 0x0, symName: '__ZNKSt3__122__compressed_pair_elemIPNS_10__function6__funcIZ20execute_filter_chainvE3$_0NS_9allocatorIS3_EEFvRKNS_12basic_stringIwNS_11char_traitsIwEENS4_IwEEEEEEELi0ELb0EE5__getB7v160006Ev', symObjAddr: 0x41BC, symBinAddr: 0x1000065D8, symSize: 0x14 }
  - { offsetInCU: 0x1401F, offset: 0x1401F, size: 0x8, addend: 0x0, symName: '__ZNKSt3__117__compressed_pairIZ20execute_filter_chainvE3$_0NS_9allocatorIS1_EEE5firstB7v160006Ev', symObjAddr: 0x41D0, symBinAddr: 0x1000065EC, symSize: 0x24 }
  - { offsetInCU: 0x14045, offset: 0x14045, size: 0x8, addend: 0x0, symName: '__ZNKSt3__122__compressed_pair_elemIZ20execute_filter_chainvE3$_0Li0ELb1EE5__getB7v160006Ev', symObjAddr: 0x41F4, symBinAddr: 0x100006610, symSize: 0x14 }
  - { offsetInCU: 0x1406B, offset: 0x1406B, size: 0x8, addend: 0x0, symName: '__ZNSt3__110__function6__funcIZ20execute_filter_chainvE3$_0NS_9allocatorIS2_EEFvRKNS_12basic_stringIwNS_11char_traitsIwEENS3_IwEEEEEEC2B7v160006ERKS2_OS4_', symObjAddr: 0x4208, symBinAddr: 0x100006624, symSize: 0x88 }
  - { offsetInCU: 0x140B3, offset: 0x140B3, size: 0x8, addend: 0x0, symName: '__ZNSt3__110__function12__alloc_funcIZ20execute_filter_chainvE3$_0NS_9allocatorIS2_EEFvRKNS_12basic_stringIwNS_11char_traitsIwEENS3_IwEEEEEEC1B7v160006ERKS2_OS4_', symObjAddr: 0x4290, symBinAddr: 0x1000066AC, symSize: 0x3C }
  - { offsetInCU: 0x140F9, offset: 0x140F9, size: 0x8, addend: 0x0, symName: '__ZNSt3__110__function12__alloc_funcIZ20execute_filter_chainvE3$_0NS_9allocatorIS2_EEFvRKNS_12basic_stringIwNS_11char_traitsIwEENS3_IwEEEEEEC2B7v160006ERKS2_OS4_', symObjAddr: 0x42CC, symBinAddr: 0x1000066E8, symSize: 0x5C }
  - { offsetInCU: 0x1413F, offset: 0x1413F, size: 0x8, addend: 0x0, symName: '__ZNSt3__117__compressed_pairIZ20execute_filter_chainvE3$_0NS_9allocatorIS1_EEEC1B7v160006IJRKS1_EJOS3_EEENS_21piecewise_construct_tENS_5tupleIJDpT_EEENSA_IJDpT0_EEE', symObjAddr: 0x4354, symBinAddr: 0x100006770, symSize: 0x3C }
  - { offsetInCU: 0x141A9, offset: 0x141A9, size: 0x8, addend: 0x0, symName: '__ZNSt3__15tupleIJRKZ20execute_filter_chainvE3$_0EEC1B7v160006INS_4_AndELi0EEES3_', symObjAddr: 0x4390, symBinAddr: 0x1000067AC, symSize: 0x34 }
  - { offsetInCU: 0x141F1, offset: 0x141F1, size: 0x8, addend: 0x0, symName: '__ZNSt3__15tupleIJRKZ20execute_filter_chainvE3$_0EEC2B7v160006INS_4_AndELi0EEES3_', symObjAddr: 0x43C4, symBinAddr: 0x1000067E0, symSize: 0x34 }
  - { offsetInCU: 0x14239, offset: 0x14239, size: 0x8, addend: 0x0, symName: '__ZNSt3__112__tuple_implINS_15__tuple_indicesIJLm0EEEEJRKZ20execute_filter_chainvE3$_0EEC1B7v160006IJLm0EEJS5_EJEJEJS5_EEENS1_IJXspT_EEEENS_13__tuple_typesIJDpT0_EEENS1_IJXspT1_EEEENS9_IJDpT2_EEEDpOT3_', symObjAddr: 0x43F8, symBinAddr: 0x100006814, symSize: 0x34 }
  - { offsetInCU: 0x142CE, offset: 0x142CE, size: 0x8, addend: 0x0, symName: '__ZNSt3__112__tuple_implINS_15__tuple_indicesIJLm0EEEEJRKZ20execute_filter_chainvE3$_0EEC2B7v160006IJLm0EEJS5_EJEJEJS5_EEENS1_IJXspT_EEEENS_13__tuple_typesIJDpT0_EEENS1_IJXspT1_EEEENS9_IJDpT2_EEEDpOT3_', symObjAddr: 0x442C, symBinAddr: 0x100006848, symSize: 0x34 }
  - { offsetInCU: 0x14363, offset: 0x14363, size: 0x8, addend: 0x0, symName: '__ZNSt3__112__tuple_leafILm0ERKZ20execute_filter_chainvE3$_0Lb0EEC2B7v160006IS3_vEEOT_', symObjAddr: 0x4460, symBinAddr: 0x10000687C, symSize: 0x20 }
  - { offsetInCU: 0x143A6, offset: 0x143A6, size: 0x8, addend: 0x0, symName: '__ZNSt3__117__compressed_pairIZ20execute_filter_chainvE3$_0NS_9allocatorIS1_EEEC2B7v160006IJRKS1_EJOS3_EEENS_21piecewise_construct_tENS_5tupleIJDpT_EEENSA_IJDpT0_EEE', symObjAddr: 0x4480, symBinAddr: 0x10000689C, symSize: 0x54 }
  - { offsetInCU: 0x14410, offset: 0x14410, size: 0x8, addend: 0x0, symName: '__ZNSt3__122__compressed_pair_elemIZ20execute_filter_chainvE3$_0Li0ELb1EEC2B7v160006IJRKS1_EJLm0EEEENS_21piecewise_construct_tENS_5tupleIJDpT_EEENS_15__tuple_indicesIJXspT0_EEEE', symObjAddr: 0x44D4, symBinAddr: 0x1000068F0, symSize: 0x38 }
  - { offsetInCU: 0x14473, offset: 0x14473, size: 0x8, addend: 0x0, symName: '__ZNSt3__112__tuple_leafILm0ERKZ20execute_filter_chainvE3$_0Lb0EE3getB7v160006Ev', symObjAddr: 0x4530, symBinAddr: 0x10000694C, symSize: 0x18 }
  - { offsetInCU: 0x14499, offset: 0x14499, size: 0x8, addend: 0x0, symName: '__ZNSt3__117__compressed_pairIPNS_10__function6__funcIZ20execute_filter_chainvE3$_0NS_9allocatorIS3_EEFvRKNS_12basic_stringIwNS_11char_traitsIwEENS4_IwEEEEEEENS_22__allocator_destructorINS4_ISE_EEEEE5firstB7v160006Ev', symObjAddr: 0x4548, symBinAddr: 0x100006964, symSize: 0x24 }
  - { offsetInCU: 0x144BF, offset: 0x144BF, size: 0x8, addend: 0x0, symName: '__ZNSt3__122__compressed_pair_elemIPNS_10__function6__funcIZ20execute_filter_chainvE3$_0NS_9allocatorIS3_EEFvRKNS_12basic_stringIwNS_11char_traitsIwEENS4_IwEEEEEEELi0ELb0EE5__getB7v160006Ev', symObjAddr: 0x456C, symBinAddr: 0x100006988, symSize: 0x14 }
  - { offsetInCU: 0x144E5, offset: 0x144E5, size: 0x8, addend: 0x0, symName: '__ZNSt3__110unique_ptrINS_10__function6__funcIZ20execute_filter_chainvE3$_0NS_9allocatorIS3_EEFvRKNS_12basic_stringIwNS_11char_traitsIwEENS4_IwEEEEEEENS_22__allocator_destructorINS4_ISE_EEEEED2B7v160006Ev', symObjAddr: 0x4580, symBinAddr: 0x10000699C, symSize: 0x30 }
  - { offsetInCU: 0x1450F, offset: 0x1450F, size: 0x8, addend: 0x0, symName: '__ZNSt3__110unique_ptrINS_10__function6__funcIZ20execute_filter_chainvE3$_0NS_9allocatorIS3_EEFvRKNS_12basic_stringIwNS_11char_traitsIwEENS4_IwEEEEEEENS_22__allocator_destructorINS4_ISE_EEEEE5resetB7v160006EPSE_', symObjAddr: 0x45B0, symBinAddr: 0x1000069CC, symSize: 0x78 }
  - { offsetInCU: 0x14553, offset: 0x14553, size: 0x8, addend: 0x0, symName: '__ZNSt3__117__compressed_pairIPNS_10__function6__funcIZ20execute_filter_chainvE3$_0NS_9allocatorIS3_EEFvRKNS_12basic_stringIwNS_11char_traitsIwEENS4_IwEEEEEEENS_22__allocator_destructorINS4_ISE_EEEEE6secondB7v160006Ev', symObjAddr: 0x4628, symBinAddr: 0x100006A44, symSize: 0x28 }
  - { offsetInCU: 0x14579, offset: 0x14579, size: 0x8, addend: 0x0, symName: '__ZNSt3__122__allocator_destructorINS_9allocatorINS_10__function6__funcIZ20execute_filter_chainvE3$_0NS1_IS4_EEFvRKNS_12basic_stringIwNS_11char_traitsIwEENS1_IwEEEEEEEEEEclB7v160006EPSE_', symObjAddr: 0x4650, symBinAddr: 0x100006A6C, symSize: 0x34 }
  - { offsetInCU: 0x145AD, offset: 0x145AD, size: 0x8, addend: 0x0, symName: '__ZNSt3__122__compressed_pair_elemINS_22__allocator_destructorINS_9allocatorINS_10__function6__funcIZ20execute_filter_chainvE3$_0NS2_IS5_EEFvRKNS_12basic_stringIwNS_11char_traitsIwEENS2_IwEEEEEEEEEEELi1ELb0EE5__getB7v160006Ev', symObjAddr: 0x4684, symBinAddr: 0x100006AA0, symSize: 0x14 }
  - { offsetInCU: 0x145D3, offset: 0x145D3, size: 0x8, addend: 0x0, symName: '__ZNSt3__116allocator_traitsINS_9allocatorINS_10__function6__funcIZ20execute_filter_chainvE3$_0NS1_IS4_EEFvRKNS_12basic_stringIwNS_11char_traitsIwEENS1_IwEEEEEEEEEE10deallocateB7v160006ERSF_PSE_m', symObjAddr: 0x4698, symBinAddr: 0x100006AB4, symSize: 0x34 }
  - { offsetInCU: 0x14615, offset: 0x14615, size: 0x8, addend: 0x0, symName: '__ZNSt3__19allocatorINS_10__function6__funcIZ20execute_filter_chainvE3$_0NS0_IS3_EEFvRKNS_12basic_stringIwNS_11char_traitsIwEENS0_IwEEEEEEEE10deallocateB7v160006EPSD_m', symObjAddr: 0x46CC, symBinAddr: 0x100006AE8, symSize: 0x40 }
  - { offsetInCU: 0x14657, offset: 0x14657, size: 0x8, addend: 0x0, symName: '__ZNSt3__110__function6__funcIZ20execute_filter_chainvE3$_0NS_9allocatorIS2_EEFvRKNS_12basic_stringIwNS_11char_traitsIwEENS3_IwEEEEEEC1B7v160006ERKS2_RKS4_', symObjAddr: 0x470C, symBinAddr: 0x100006B28, symSize: 0x3C }
  - { offsetInCU: 0x1469F, offset: 0x1469F, size: 0x8, addend: 0x0, symName: '__ZNSt3__110__function6__funcIZ20execute_filter_chainvE3$_0NS_9allocatorIS2_EEFvRKNS_12basic_stringIwNS_11char_traitsIwEENS3_IwEEEEEEC2B7v160006ERKS2_RKS4_', symObjAddr: 0x4748, symBinAddr: 0x100006B64, symSize: 0x88 }
  - { offsetInCU: 0x146E7, offset: 0x146E7, size: 0x8, addend: 0x0, symName: '__ZNSt3__110__function12__alloc_funcIZ20execute_filter_chainvE3$_0NS_9allocatorIS2_EEFvRKNS_12basic_stringIwNS_11char_traitsIwEENS3_IwEEEEEEC1B7v160006ERKS2_RKS4_', symObjAddr: 0x47D0, symBinAddr: 0x100006BEC, symSize: 0x3C }
  - { offsetInCU: 0x1472D, offset: 0x1472D, size: 0x8, addend: 0x0, symName: '__ZNSt3__110__function12__alloc_funcIZ20execute_filter_chainvE3$_0NS_9allocatorIS2_EEFvRKNS_12basic_stringIwNS_11char_traitsIwEENS3_IwEEEEEEC2B7v160006ERKS2_RKS4_', symObjAddr: 0x480C, symBinAddr: 0x100006C28, symSize: 0x5C }
  - { offsetInCU: 0x14773, offset: 0x14773, size: 0x8, addend: 0x0, symName: '__ZNSt3__117__compressed_pairIZ20execute_filter_chainvE3$_0NS_9allocatorIS1_EEEC1B7v160006IJRKS1_EJRKS3_EEENS_21piecewise_construct_tENS_5tupleIJDpT_EEENSB_IJDpT0_EEE', symObjAddr: 0x4894, symBinAddr: 0x100006CB0, symSize: 0x3C }
  - { offsetInCU: 0x147DD, offset: 0x147DD, size: 0x8, addend: 0x0, symName: '__ZNSt3__15tupleIJRKNS_9allocatorIZ20execute_filter_chainvE3$_0EEEEC1B7v160006INS_4_AndELi0EEES5_', symObjAddr: 0x48D0, symBinAddr: 0x100006CEC, symSize: 0x34 }
  - { offsetInCU: 0x14825, offset: 0x14825, size: 0x8, addend: 0x0, symName: '__ZNSt3__15tupleIJRKNS_9allocatorIZ20execute_filter_chainvE3$_0EEEEC2B7v160006INS_4_AndELi0EEES5_', symObjAddr: 0x4904, symBinAddr: 0x100006D20, symSize: 0x34 }
  - { offsetInCU: 0x1486D, offset: 0x1486D, size: 0x8, addend: 0x0, symName: '__ZNSt3__112__tuple_implINS_15__tuple_indicesIJLm0EEEEJRKNS_9allocatorIZ20execute_filter_chainvE3$_0EEEEC1B7v160006IJLm0EEJS7_EJEJEJS7_EEENS1_IJXspT_EEEENS_13__tuple_typesIJDpT0_EEENS1_IJXspT1_EEEENSB_IJDpT2_EEEDpOT3_', symObjAddr: 0x4938, symBinAddr: 0x100006D54, symSize: 0x34 }
  - { offsetInCU: 0x14902, offset: 0x14902, size: 0x8, addend: 0x0, symName: '__ZNSt3__112__tuple_implINS_15__tuple_indicesIJLm0EEEEJRKNS_9allocatorIZ20execute_filter_chainvE3$_0EEEEC2B7v160006IJLm0EEJS7_EJEJEJS7_EEENS1_IJXspT_EEEENS_13__tuple_typesIJDpT0_EEENS1_IJXspT1_EEEENSB_IJDpT2_EEEDpOT3_', symObjAddr: 0x496C, symBinAddr: 0x100006D88, symSize: 0x34 }
  - { offsetInCU: 0x14997, offset: 0x14997, size: 0x8, addend: 0x0, symName: '__ZNSt3__112__tuple_leafILm0ERKNS_9allocatorIZ20execute_filter_chainvE3$_0EELb0EEC2B7v160006IS5_vEEOT_', symObjAddr: 0x49A0, symBinAddr: 0x100006DBC, symSize: 0x20 }
  - { offsetInCU: 0x149DA, offset: 0x149DA, size: 0x8, addend: 0x0, symName: '__ZNSt3__117__compressed_pairIZ20execute_filter_chainvE3$_0NS_9allocatorIS1_EEEC2B7v160006IJRKS1_EJRKS3_EEENS_21piecewise_construct_tENS_5tupleIJDpT_EEENSB_IJDpT0_EEE', symObjAddr: 0x49C0, symBinAddr: 0x100006DDC, symSize: 0x54 }
  - { offsetInCU: 0x14A44, offset: 0x14A44, size: 0x8, addend: 0x0, symName: '__ZNSt3__122__compressed_pair_elemINS_9allocatorIZ20execute_filter_chainvE3$_0EELi1ELb1EEC2B7v160006IJRKS3_EJLm0EEEENS_21piecewise_construct_tENS_5tupleIJDpT_EEENS_15__tuple_indicesIJXspT0_EEEE', symObjAddr: 0x4A14, symBinAddr: 0x100006E30, symSize: 0x38 }
  - { offsetInCU: 0x14AA7, offset: 0x14AA7, size: 0x8, addend: 0x0, symName: '__ZNSt3__112__tuple_leafILm0ERKNS_9allocatorIZ20execute_filter_chainvE3$_0EELb0EE3getB7v160006Ev', symObjAddr: 0x4A70, symBinAddr: 0x100006E8C, symSize: 0x18 }
  - { offsetInCU: 0x14ACD, offset: 0x14ACD, size: 0x8, addend: 0x0, symName: '__ZNSt3__110__function12__alloc_funcIZ20execute_filter_chainvE3$_0NS_9allocatorIS2_EEFvRKNS_12basic_stringIwNS_11char_traitsIwEENS3_IwEEEEEE7destroyB7v160006Ev', symObjAddr: 0x4A88, symBinAddr: 0x100006EA4, symSize: 0x10 }
  - { offsetInCU: 0x14AF3, offset: 0x14AF3, size: 0x8, addend: 0x0, symName: '__ZNSt3__110__function12__alloc_funcIZ20execute_filter_chainvE3$_0NS_9allocatorIS2_EEFvRKNS_12basic_stringIwNS_11char_traitsIwEENS3_IwEEEEEEclB7v160006ESB_', symObjAddr: 0x4A98, symBinAddr: 0x100006EB4, symSize: 0x30 }
  - { offsetInCU: 0x14B27, offset: 0x14B27, size: 0x8, addend: 0x0, symName: '__ZNSt3__128__invoke_void_return_wrapperIvLb1EE6__callIJRZ20execute_filter_chainvE3$_0RKNS_12basic_stringIwNS_11char_traitsIwEENS_9allocatorIwEEEEEEEvDpOT_', symObjAddr: 0x4AC8, symBinAddr: 0x100006EE4, symSize: 0x2C }
  - { offsetInCU: 0x14B6A, offset: 0x14B6A, size: 0x8, addend: 0x0, symName: '__ZNSt3__117__compressed_pairIZ20execute_filter_chainvE3$_0NS_9allocatorIS1_EEE5firstB7v160006Ev', symObjAddr: 0x4AF4, symBinAddr: 0x100006F10, symSize: 0x24 }
  - { offsetInCU: 0x14B96, offset: 0x14B96, size: 0x8, addend: 0x0, symName: '__ZZ20execute_filter_chainvENK3$_0clERKNSt3__112basic_stringIwNS0_11char_traitsIwEENS0_9allocatorIwEEEE', symObjAddr: 0x4B44, symBinAddr: 0x100006F60, symSize: 0x48 }
  - { offsetInCU: 0x14BCE, offset: 0x14BCE, size: 0x8, addend: 0x0, symName: __ZNKSt3__112basic_stringIwNS_11char_traitsIwEENS_9allocatorIwEEE4dataB7v160006Ev, symObjAddr: 0x4BD8, symBinAddr: 0x100006FF4, symSize: 0x28 }
  - { offsetInCU: 0x14BF4, offset: 0x14BF4, size: 0x8, addend: 0x0, symName: __ZNKSt3__112basic_stringIwNS_11char_traitsIwEENS_9allocatorIwEEE4sizeB7v160006Ev, symObjAddr: 0x4C00, symBinAddr: 0x10000701C, symSize: 0x54 }
  - { offsetInCU: 0x14C1A, offset: 0x14C1A, size: 0x8, addend: 0x0, symName: __ZNKSt3__112basic_stringIwNS_11char_traitsIwEENS_9allocatorIwEEE13__get_pointerB7v160006Ev, symObjAddr: 0x4C68, symBinAddr: 0x100007084, symSize: 0x54 }
  - { offsetInCU: 0x14C40, offset: 0x14C40, size: 0x8, addend: 0x0, symName: __ZNKSt3__112basic_stringIwNS_11char_traitsIwEENS_9allocatorIwEEE18__get_long_pointerB7v160006Ev, symObjAddr: 0x4CBC, symBinAddr: 0x1000070D8, symSize: 0x28 }
  - { offsetInCU: 0x14C66, offset: 0x14C66, size: 0x8, addend: 0x0, symName: __ZNKSt3__112basic_stringIwNS_11char_traitsIwEENS_9allocatorIwEEE19__get_short_pointerB7v160006Ev, symObjAddr: 0x4CE4, symBinAddr: 0x100007100, symSize: 0x28 }
  - { offsetInCU: 0x14C8C, offset: 0x14C8C, size: 0x8, addend: 0x0, symName: __ZNSt3__114pointer_traitsIPKwE10pointer_toB7v160006ERS1_, symObjAddr: 0x4D0C, symBinAddr: 0x100007128, symSize: 0x14 }
  - { offsetInCU: 0x14CAF, offset: 0x14CAF, size: 0x8, addend: 0x0, symName: __ZNKSt3__112basic_stringIwNS_11char_traitsIwEENS_9allocatorIwEEE15__get_long_sizeB7v160006Ev, symObjAddr: 0x4D20, symBinAddr: 0x10000713C, symSize: 0x28 }
  - { offsetInCU: 0x14CD5, offset: 0x14CD5, size: 0x8, addend: 0x0, symName: __ZNKSt3__112basic_stringIwNS_11char_traitsIwEENS_9allocatorIwEEE16__get_short_sizeB7v160006Ev, symObjAddr: 0x4D48, symBinAddr: 0x100007164, symSize: 0x34 }
  - { offsetInCU: 0x14CFB, offset: 0x14CFB, size: 0x8, addend: 0x0, symName: '__ZNSt3__122__compressed_pair_elemIZ20execute_filter_chainvE3$_0Li0ELb1EE5__getB7v160006Ev', symObjAddr: 0x4D7C, symBinAddr: 0x100007198, symSize: 0x14 }
  - { offsetInCU: 0x14D57, offset: 0x14D57, size: 0x8, addend: 0x0, symName: __ZNKSt9type_infoeqB7v160006ERKS_, symObjAddr: 0x4D90, symBinAddr: 0x1000071AC, symSize: 0xDC }
  - { offsetInCU: 0x14DF5, offset: 0x14DF5, size: 0x8, addend: 0x0, symName: __ZNSt27__type_info_implementations30__non_unique_arm_rtti_bit_impl21__is_type_name_uniqueB7v160006Em, symObjAddr: 0x4E6C, symBinAddr: 0x100007288, symSize: 0x20 }
  - { offsetInCU: 0x14E19, offset: 0x14E19, size: 0x8, addend: 0x0, symName: __ZNSt3__18functionIFvRKNS_12basic_stringIwNS_11char_traitsIwEENS_9allocatorIwEEEEEED2Ev, symObjAddr: 0x4E8C, symBinAddr: 0x1000072A8, symSize: 0x2C }
  - { offsetInCU: 0x14E45, offset: 0x14E45, size: 0x8, addend: 0x0, symName: __ZNSt3__110__function12__value_funcIFvRKNS_12basic_stringIwNS_11char_traitsIwEENS_9allocatorIwEEEEEED1B7v160006Ev, symObjAddr: 0x4EB8, symBinAddr: 0x1000072D4, symSize: 0x2C }
  - { offsetInCU: 0x14E6F, offset: 0x14E6F, size: 0x8, addend: 0x0, symName: __ZNSt3__110__function12__value_funcIFvRKNS_12basic_stringIwNS_11char_traitsIwEENS_9allocatorIwEEEEEED2B7v160006Ev, symObjAddr: 0x4EE4, symBinAddr: 0x100007300, symSize: 0x90 }
...
